
mlnlib.elf:     file format elf32-avr

Sections:
Idx Name          Size      VMA       LMA       File off  Algn
  0 .data         00000018  00804000  00000f82  00001016  2**0
                  CONTENTS, ALLOC, LOAD, DATA
  1 .text         00000f82  00000000  00000000  00000094  2**1
                  CONTENTS, ALLOC, LOAD, READONLY, CODE
  2 .bss          00000066  00804018  00804018  0000102e  2**0
                  ALLOC
  3 .comment      00000030  00000000  00000000  0000102e  2**0
                  CONTENTS, READONLY
  4 .note.gnu.avr.deviceinfo 00000040  00000000  00000000  00001060  2**2
                  CONTENTS, READONLY
  5 .debug_aranges 000001e0  00000000  00000000  000010a0  2**0
                  CONTENTS, READONLY, DEBUGGING
  6 .debug_info   00006f42  00000000  00000000  00001280  2**0
                  CONTENTS, READONLY, DEBUGGING
  7 .debug_abbrev 00003ad3  00000000  00000000  000081c2  2**0
                  CONTENTS, READONLY, DEBUGGING
  8 .debug_line   00001100  00000000  00000000  0000bc95  2**0
                  CONTENTS, READONLY, DEBUGGING
  9 .debug_frame  00000610  00000000  00000000  0000cd98  2**2
                  CONTENTS, READONLY, DEBUGGING
 10 .debug_str    000023cc  00000000  00000000  0000d3a8  2**0
                  CONTENTS, READONLY, DEBUGGING
 11 .debug_loc    000015d3  00000000  00000000  0000f774  2**0
                  CONTENTS, READONLY, DEBUGGING
 12 .debug_ranges 00000190  00000000  00000000  00010d47  2**0
                  CONTENTS, READONLY, DEBUGGING

Disassembly of section .text:

00000000 <__vectors>:
   0:	0c 94 7b 00 	jmp	0xf6	; 0xf6 <__ctors_end>
   4:	0c 94 a5 00 	jmp	0x14a	; 0x14a <__bad_interrupt>
   8:	0c 94 a5 00 	jmp	0x14a	; 0x14a <__bad_interrupt>
   c:	0c 94 a5 00 	jmp	0x14a	; 0x14a <__bad_interrupt>
  10:	0c 94 a5 00 	jmp	0x14a	; 0x14a <__bad_interrupt>
  14:	0c 94 a5 00 	jmp	0x14a	; 0x14a <__bad_interrupt>
  18:	0c 94 a5 00 	jmp	0x14a	; 0x14a <__bad_interrupt>
  1c:	0c 94 a5 00 	jmp	0x14a	; 0x14a <__bad_interrupt>
  20:	0c 94 a5 00 	jmp	0x14a	; 0x14a <__bad_interrupt>
  24:	0c 94 09 03 	jmp	0x612	; 0x612 <__vector_9>
  28:	0c 94 a5 00 	jmp	0x14a	; 0x14a <__bad_interrupt>
  2c:	0c 94 a5 00 	jmp	0x14a	; 0x14a <__bad_interrupt>
  30:	0c 94 a5 00 	jmp	0x14a	; 0x14a <__bad_interrupt>
  34:	0c 94 a5 00 	jmp	0x14a	; 0x14a <__bad_interrupt>
  38:	0c 94 a5 00 	jmp	0x14a	; 0x14a <__bad_interrupt>
  3c:	0c 94 a5 00 	jmp	0x14a	; 0x14a <__bad_interrupt>
  40:	0c 94 a5 00 	jmp	0x14a	; 0x14a <__bad_interrupt>
  44:	0c 94 a5 00 	jmp	0x14a	; 0x14a <__bad_interrupt>
  48:	0c 94 a5 00 	jmp	0x14a	; 0x14a <__bad_interrupt>
  4c:	0c 94 a5 00 	jmp	0x14a	; 0x14a <__bad_interrupt>
  50:	0c 94 a5 00 	jmp	0x14a	; 0x14a <__bad_interrupt>
  54:	0c 94 a5 00 	jmp	0x14a	; 0x14a <__bad_interrupt>
  58:	0c 94 a5 00 	jmp	0x14a	; 0x14a <__bad_interrupt>
  5c:	0c 94 a5 00 	jmp	0x14a	; 0x14a <__bad_interrupt>
  60:	0c 94 a5 00 	jmp	0x14a	; 0x14a <__bad_interrupt>
  64:	0c 94 a5 00 	jmp	0x14a	; 0x14a <__bad_interrupt>
  68:	0c 94 a5 00 	jmp	0x14a	; 0x14a <__bad_interrupt>
  6c:	0c 94 a5 00 	jmp	0x14a	; 0x14a <__bad_interrupt>
  70:	0c 94 a5 00 	jmp	0x14a	; 0x14a <__bad_interrupt>
  74:	0c 94 a5 00 	jmp	0x14a	; 0x14a <__bad_interrupt>
  78:	0c 94 a5 00 	jmp	0x14a	; 0x14a <__bad_interrupt>
  7c:	0c 94 a5 00 	jmp	0x14a	; 0x14a <__bad_interrupt>
  80:	0c 94 a5 00 	jmp	0x14a	; 0x14a <__bad_interrupt>
  84:	0c 94 a5 00 	jmp	0x14a	; 0x14a <__bad_interrupt>
  88:	0c 94 a5 00 	jmp	0x14a	; 0x14a <__bad_interrupt>
  8c:	0c 94 a5 00 	jmp	0x14a	; 0x14a <__bad_interrupt>
  90:	0c 94 a5 00 	jmp	0x14a	; 0x14a <__bad_interrupt>
  94:	0c 94 a5 00 	jmp	0x14a	; 0x14a <__bad_interrupt>
  98:	0c 94 a5 00 	jmp	0x14a	; 0x14a <__bad_interrupt>
  9c:	0c 94 a5 00 	jmp	0x14a	; 0x14a <__bad_interrupt>
  a0:	0c 94 a5 00 	jmp	0x14a	; 0x14a <__bad_interrupt>
  a4:	0c 94 a5 00 	jmp	0x14a	; 0x14a <__bad_interrupt>
  a8:	0c 94 a5 00 	jmp	0x14a	; 0x14a <__bad_interrupt>
  ac:	0c 94 a5 00 	jmp	0x14a	; 0x14a <__bad_interrupt>
  b0:	0c 94 a5 00 	jmp	0x14a	; 0x14a <__bad_interrupt>
  b4:	0c 94 a5 00 	jmp	0x14a	; 0x14a <__bad_interrupt>
  b8:	0c 94 a5 00 	jmp	0x14a	; 0x14a <__bad_interrupt>
  bc:	0c 94 3c 03 	jmp	0x678	; 0x678 <__vector_47>
  c0:	0c 94 a5 00 	jmp	0x14a	; 0x14a <__bad_interrupt>
  c4:	0c 94 a5 00 	jmp	0x14a	; 0x14a <__bad_interrupt>
  c8:	0c 94 a5 00 	jmp	0x14a	; 0x14a <__bad_interrupt>
  cc:	0c 94 a5 00 	jmp	0x14a	; 0x14a <__bad_interrupt>
  d0:	0c 94 a5 00 	jmp	0x14a	; 0x14a <__bad_interrupt>
  d4:	0c 94 35 05 	jmp	0xa6a	; 0xa6a <__vector_53>
  d8:	0c 94 a5 00 	jmp	0x14a	; 0x14a <__bad_interrupt>
  dc:	0c 94 a5 00 	jmp	0x14a	; 0x14a <__bad_interrupt>
  e0:	0c 94 a5 00 	jmp	0x14a	; 0x14a <__bad_interrupt>
  e4:	0c 94 a5 00 	jmp	0x14a	; 0x14a <__bad_interrupt>
  e8:	0c 94 a5 00 	jmp	0x14a	; 0x14a <__bad_interrupt>
  ec:	0c 94 a5 00 	jmp	0x14a	; 0x14a <__bad_interrupt>
  f0:	0c 94 a5 00 	jmp	0x14a	; 0x14a <__bad_interrupt>

000000f4 <__ctors_start>:
  f4:	9f 01       	movw	r18, r30

000000f6 <__ctors_end>:
  f6:	11 24       	eor	r1, r1
  f8:	1f be       	out	0x3f, r1	; 63
  fa:	cf ef       	ldi	r28, 0xFF	; 255
  fc:	cd bf       	out	0x3d, r28	; 61
  fe:	df e7       	ldi	r29, 0x7F	; 127
 100:	de bf       	out	0x3e, r29	; 62

00000102 <__do_copy_data>:
 102:	10 e4       	ldi	r17, 0x40	; 64
 104:	a0 e0       	ldi	r26, 0x00	; 0
 106:	b0 e4       	ldi	r27, 0x40	; 64
 108:	e2 e8       	ldi	r30, 0x82	; 130
 10a:	ff e0       	ldi	r31, 0x0F	; 15
 10c:	00 e0       	ldi	r16, 0x00	; 0
 10e:	0b bf       	out	0x3b, r16	; 59
 110:	02 c0       	rjmp	.+4      	; 0x116 <__do_copy_data+0x14>
 112:	07 90       	elpm	r0, Z+
 114:	0d 92       	st	X+, r0
 116:	a8 31       	cpi	r26, 0x18	; 24
 118:	b1 07       	cpc	r27, r17
 11a:	d9 f7       	brne	.-10     	; 0x112 <__do_copy_data+0x10>

0000011c <__do_clear_bss>:
 11c:	20 e4       	ldi	r18, 0x40	; 64
 11e:	a8 e1       	ldi	r26, 0x18	; 24
 120:	b0 e4       	ldi	r27, 0x40	; 64
 122:	01 c0       	rjmp	.+2      	; 0x126 <.do_clear_bss_start>

00000124 <.do_clear_bss_loop>:
 124:	1d 92       	st	X+, r1

00000126 <.do_clear_bss_start>:
 126:	ae 37       	cpi	r26, 0x7E	; 126
 128:	b2 07       	cpc	r27, r18
 12a:	e1 f7       	brne	.-8      	; 0x124 <.do_clear_bss_loop>

0000012c <__do_global_ctors>:
 12c:	10 e0       	ldi	r17, 0x00	; 0
 12e:	cb e7       	ldi	r28, 0x7B	; 123
 130:	d0 e0       	ldi	r29, 0x00	; 0
 132:	04 c0       	rjmp	.+8      	; 0x13c <__do_global_ctors+0x10>
 134:	21 97       	sbiw	r28, 0x01	; 1
 136:	fe 01       	movw	r30, r28
 138:	0e 94 a7 07 	call	0xf4e	; 0xf4e <__tablejump2__>
 13c:	ca 37       	cpi	r28, 0x7A	; 122
 13e:	d1 07       	cpc	r29, r17
 140:	c9 f7       	brne	.-14     	; 0x134 <__do_global_ctors+0x8>
 142:	0e 94 75 01 	call	0x2ea	; 0x2ea <main>
 146:	0c 94 bf 07 	jmp	0xf7e	; 0xf7e <_exit>

0000014a <__bad_interrupt>:
 14a:	0c 94 00 00 	jmp	0	; 0x0 <__vectors>

0000014e <_ZN8mln_gpioC1Ev>:


#define BITMAP(pin) (1 << pin)

// default constructor
mln_gpio::mln_gpio()
 14e:	08 95       	ret

00000150 <_ZN8mln_gpio9conf_pullE19mln_gpio_pin_dirs_e>:
	conf_pull(new_dir);
}

void mln_gpio::conf_pull(PIN_DIR_t dir)
{
	uint8_t* port = (uint8_t *)pin.port + 0x10 + pin.pin_num;
 150:	fc 01       	movw	r30, r24
 152:	20 81       	ld	r18, Z
 154:	31 81       	ldd	r19, Z+1	; 0x01
 156:	82 81       	ldd	r24, Z+2	; 0x02
 158:	e8 2f       	mov	r30, r24
 15a:	f0 e0       	ldi	r31, 0x00	; 0
 15c:	70 96       	adiw	r30, 0x10	; 16
 15e:	e2 0f       	add	r30, r18
 160:	f3 1f       	adc	r31, r19
	if(dir == INPUT_PULLUP)
 162:	62 30       	cpi	r22, 0x02	; 2
 164:	21 f4       	brne	.+8      	; 0x16e <_ZN8mln_gpio9conf_pullE19mln_gpio_pin_dirs_e+0x1e>
		*port |= PORT_PULLUPEN_bm;
 166:	80 81       	ld	r24, Z
 168:	88 60       	ori	r24, 0x08	; 8
 16a:	80 83       	st	Z, r24
 16c:	08 95       	ret
	else
		*port &= ~PORT_PULLUPEN_bm;
 16e:	80 81       	ld	r24, Z
 170:	87 7f       	andi	r24, 0xF7	; 247
 172:	80 83       	st	Z, r24
 174:	08 95       	ret

00000176 <_ZN8mln_gpio8conf_dirE19mln_gpio_pin_dirs_e>:
	conf_dir(new_dir);
} //mln_gpio

void mln_gpio::conf_dir(PIN_DIR_t new_dir)
{
	dir = new_dir;
 176:	dc 01       	movw	r26, r24
 178:	13 96       	adiw	r26, 0x03	; 3
 17a:	6c 93       	st	X, r22
 17c:	13 97       	sbiw	r26, 0x03	; 3
	
	if(dir == OUTPUT)
 17e:	61 11       	cpse	r22, r1
 180:	10 c0       	rjmp	.+32     	; 0x1a2 <_ZN8mln_gpio8conf_dirE19mln_gpio_pin_dirs_e+0x2c>
		pin.port->DIR |= (1 << pin.pin_num);
 182:	ed 91       	ld	r30, X+
 184:	fc 91       	ld	r31, X
 186:	11 97       	sbiw	r26, 0x01	; 1
 188:	40 81       	ld	r20, Z
 18a:	21 e0       	ldi	r18, 0x01	; 1
 18c:	30 e0       	ldi	r19, 0x00	; 0
 18e:	12 96       	adiw	r26, 0x02	; 2
 190:	0c 90       	ld	r0, X
 192:	02 c0       	rjmp	.+4      	; 0x198 <_ZN8mln_gpio8conf_dirE19mln_gpio_pin_dirs_e+0x22>
 194:	22 0f       	add	r18, r18
 196:	33 1f       	adc	r19, r19
 198:	0a 94       	dec	r0
 19a:	e2 f7       	brpl	.-8      	; 0x194 <_ZN8mln_gpio8conf_dirE19mln_gpio_pin_dirs_e+0x1e>
 19c:	24 2b       	or	r18, r20
 19e:	20 83       	st	Z, r18
 1a0:	11 c0       	rjmp	.+34     	; 0x1c4 <_ZN8mln_gpio8conf_dirE19mln_gpio_pin_dirs_e+0x4e>
	else
		pin.port->DIR &= ~(1 << pin.pin_num);
 1a2:	dc 01       	movw	r26, r24
 1a4:	ed 91       	ld	r30, X+
 1a6:	fc 91       	ld	r31, X
 1a8:	11 97       	sbiw	r26, 0x01	; 1
 1aa:	40 81       	ld	r20, Z
 1ac:	21 e0       	ldi	r18, 0x01	; 1
 1ae:	30 e0       	ldi	r19, 0x00	; 0
 1b0:	12 96       	adiw	r26, 0x02	; 2
 1b2:	0c 90       	ld	r0, X
 1b4:	02 c0       	rjmp	.+4      	; 0x1ba <_ZN8mln_gpio8conf_dirE19mln_gpio_pin_dirs_e+0x44>
 1b6:	22 0f       	add	r18, r18
 1b8:	33 1f       	adc	r19, r19
 1ba:	0a 94       	dec	r0
 1bc:	e2 f7       	brpl	.-8      	; 0x1b6 <_ZN8mln_gpio8conf_dirE19mln_gpio_pin_dirs_e+0x40>
 1be:	20 95       	com	r18
 1c0:	24 23       	and	r18, r20
 1c2:	20 83       	st	Z, r18
	
	conf_pull(new_dir);
 1c4:	0e 94 a8 00 	call	0x150	; 0x150 <_ZN8mln_gpio9conf_pullE19mln_gpio_pin_dirs_e>
 1c8:	08 95       	ret

000001ca <_ZN8mln_gpioC1E14mln_gpio_pin_s19mln_gpio_pin_dirs_eh>:
mln_gpio::mln_gpio()
{
} //mln_gpio

// constructor
mln_gpio::mln_gpio(PIN_t new_pin, PIN_DIR_t new_dir, uint8_t new_inverted)
 1ca:	0f 93       	push	r16
{
	pin = new_pin;
 1cc:	fc 01       	movw	r30, r24
 1ce:	40 83       	st	Z, r20
 1d0:	51 83       	std	Z+1, r21	; 0x01
 1d2:	62 83       	std	Z+2, r22	; 0x02
	inverted = new_inverted;
 1d4:	04 83       	std	Z+4, r16	; 0x04
	
	conf_dir(new_dir);
 1d6:	62 2f       	mov	r22, r18
 1d8:	0e 94 bb 00 	call	0x176	; 0x176 <_ZN8mln_gpio8conf_dirE19mln_gpio_pin_dirs_e>
} //mln_gpio
 1dc:	0f 91       	pop	r16
 1de:	08 95       	ret

000001e0 <_ZN8mln_gpio3setEv>:
	else
		*port &= ~PORT_PULLUPEN_bm;
}

void mln_gpio::set(void)
{
 1e0:	fc 01       	movw	r30, r24
	inverted ? pin.port->OUTCLR = BITMAP(pin.pin_num) : pin.port->OUTSET = BITMAP(pin.pin_num);
 1e2:	84 81       	ldd	r24, Z+4	; 0x04
 1e4:	88 23       	and	r24, r24
 1e6:	69 f0       	breq	.+26     	; 0x202 <__EEPROM_REGION_LENGTH__+0x2>
 1e8:	a0 81       	ld	r26, Z
 1ea:	b1 81       	ldd	r27, Z+1	; 0x01
 1ec:	81 e0       	ldi	r24, 0x01	; 1
 1ee:	90 e0       	ldi	r25, 0x00	; 0
 1f0:	02 80       	ldd	r0, Z+2	; 0x02
 1f2:	02 c0       	rjmp	.+4      	; 0x1f8 <_ZN8mln_gpio3setEv+0x18>
 1f4:	88 0f       	add	r24, r24
 1f6:	99 1f       	adc	r25, r25
 1f8:	0a 94       	dec	r0
 1fa:	e2 f7       	brpl	.-8      	; 0x1f4 <_ZN8mln_gpio3setEv+0x14>
 1fc:	16 96       	adiw	r26, 0x06	; 6
 1fe:	8c 93       	st	X, r24
 200:	08 95       	ret
 202:	a0 81       	ld	r26, Z
 204:	b1 81       	ldd	r27, Z+1	; 0x01
 206:	81 e0       	ldi	r24, 0x01	; 1
 208:	90 e0       	ldi	r25, 0x00	; 0
 20a:	02 80       	ldd	r0, Z+2	; 0x02
 20c:	02 c0       	rjmp	.+4      	; 0x212 <__EEPROM_REGION_LENGTH__+0x12>
 20e:	88 0f       	add	r24, r24
 210:	99 1f       	adc	r25, r25
 212:	0a 94       	dec	r0
 214:	e2 f7       	brpl	.-8      	; 0x20e <__EEPROM_REGION_LENGTH__+0xe>
 216:	15 96       	adiw	r26, 0x05	; 5
 218:	8c 93       	st	X, r24
 21a:	08 95       	ret

0000021c <_ZN8mln_gpio5clearEv>:
}

void mln_gpio::clear(void)
{
 21c:	fc 01       	movw	r30, r24
	inverted ? pin.port->OUTSET = BITMAP(pin.pin_num) : pin.port->OUTCLR = BITMAP(pin.pin_num);
 21e:	84 81       	ldd	r24, Z+4	; 0x04
 220:	88 23       	and	r24, r24
 222:	69 f0       	breq	.+26     	; 0x23e <_ZN8mln_gpio5clearEv+0x22>
 224:	a0 81       	ld	r26, Z
 226:	b1 81       	ldd	r27, Z+1	; 0x01
 228:	81 e0       	ldi	r24, 0x01	; 1
 22a:	90 e0       	ldi	r25, 0x00	; 0
 22c:	02 80       	ldd	r0, Z+2	; 0x02
 22e:	02 c0       	rjmp	.+4      	; 0x234 <_ZN8mln_gpio5clearEv+0x18>
 230:	88 0f       	add	r24, r24
 232:	99 1f       	adc	r25, r25
 234:	0a 94       	dec	r0
 236:	e2 f7       	brpl	.-8      	; 0x230 <_ZN8mln_gpio5clearEv+0x14>
 238:	15 96       	adiw	r26, 0x05	; 5
 23a:	8c 93       	st	X, r24
 23c:	08 95       	ret
 23e:	a0 81       	ld	r26, Z
 240:	b1 81       	ldd	r27, Z+1	; 0x01
 242:	81 e0       	ldi	r24, 0x01	; 1
 244:	90 e0       	ldi	r25, 0x00	; 0
 246:	02 80       	ldd	r0, Z+2	; 0x02
 248:	02 c0       	rjmp	.+4      	; 0x24e <_ZN8mln_gpio5clearEv+0x32>
 24a:	88 0f       	add	r24, r24
 24c:	99 1f       	adc	r25, r25
 24e:	0a 94       	dec	r0
 250:	e2 f7       	brpl	.-8      	; 0x24a <_ZN8mln_gpio5clearEv+0x2e>
 252:	16 96       	adiw	r26, 0x06	; 6
 254:	8c 93       	st	X, r24
 256:	08 95       	ret

00000258 <_ZN8mln_gpio6toggleEv>:
}

void mln_gpio::toggle(void)
{
 258:	dc 01       	movw	r26, r24
	pin.port->OUT ^= BITMAP(pin.pin_num);
 25a:	ed 91       	ld	r30, X+
 25c:	fc 91       	ld	r31, X
 25e:	11 97       	sbiw	r26, 0x01	; 1
 260:	44 81       	ldd	r20, Z+4	; 0x04
 262:	21 e0       	ldi	r18, 0x01	; 1
 264:	30 e0       	ldi	r19, 0x00	; 0
 266:	c9 01       	movw	r24, r18
 268:	12 96       	adiw	r26, 0x02	; 2
 26a:	0c 90       	ld	r0, X
 26c:	02 c0       	rjmp	.+4      	; 0x272 <_ZN8mln_gpio6toggleEv+0x1a>
 26e:	88 0f       	add	r24, r24
 270:	99 1f       	adc	r25, r25
 272:	0a 94       	dec	r0
 274:	e2 f7       	brpl	.-8      	; 0x26e <_ZN8mln_gpio6toggleEv+0x16>
 276:	84 27       	eor	r24, r20
 278:	84 83       	std	Z+4, r24	; 0x04
 27a:	08 95       	ret

0000027c <_ZZ4mainENUlvE_4_FUNEv>:
uint16_t dac_value = 0;
uint8_t buffer[2] = {0};

void led_task(void)
{
	led_builtin.toggle();
 27c:	84 e2       	ldi	r24, 0x24	; 36
 27e:	90 e4       	ldi	r25, 0x40	; 64
 280:	0e 94 2c 01 	call	0x258	; 0x258 <_ZN8mln_gpio6toggleEv>
 284:	08 95       	ret

00000286 <_Z41__static_initialization_and_destruction_0ii>:
 286:	0f 93       	push	r16
 288:	01 97       	sbiw	r24, 0x01	; 1
 28a:	69 f5       	brne	.+90     	; 0x2e6 <_Z41__static_initialization_and_destruction_0ii+0x60>
 28c:	6f 3f       	cpi	r22, 0xFF	; 255
 28e:	7f 4f       	sbci	r23, 0xFF	; 255
 290:	51 f5       	brne	.+84     	; 0x2e6 <_Z41__static_initialization_and_destruction_0ii+0x60>
 292:	20 e0       	ldi	r18, 0x00	; 0
 294:	32 ec       	ldi	r19, 0xC2	; 194
 296:	41 e0       	ldi	r20, 0x01	; 1
 298:	50 e0       	ldi	r21, 0x00	; 0
 29a:	63 e0       	ldi	r22, 0x03	; 3
 29c:	85 e3       	ldi	r24, 0x35	; 53
 29e:	90 e4       	ldi	r25, 0x40	; 64
 2a0:	0e 94 78 04 	call	0x8f0	; 0x8f0 <_ZN8mln_uartC1E15mln_uart_inst_em>
 2a4:	20 e4       	ldi	r18, 0x40	; 64
 2a6:	34 e0       	ldi	r19, 0x04	; 4
 2a8:	47 e0       	ldi	r20, 0x07	; 7
 2aa:	60 e4       	ldi	r22, 0x40	; 64
 2ac:	79 e0       	ldi	r23, 0x09	; 9
 2ae:	8e e2       	ldi	r24, 0x2E	; 46
 2b0:	90 e4       	ldi	r25, 0x40	; 64
 2b2:	0e 94 a6 01 	call	0x34c	; 0x34c <_ZN7mln_spiC1EP10SPI_struct14mln_gpio_pin_s>
 2b6:	00 e0       	ldi	r16, 0x00	; 0
 2b8:	20 e0       	ldi	r18, 0x00	; 0
 2ba:	40 e4       	ldi	r20, 0x40	; 64
 2bc:	54 e0       	ldi	r21, 0x04	; 4
 2be:	63 e0       	ldi	r22, 0x03	; 3
 2c0:	89 e2       	ldi	r24, 0x29	; 41
 2c2:	90 e4       	ldi	r25, 0x40	; 64
 2c4:	0e 94 e5 00 	call	0x1ca	; 0x1ca <_ZN8mln_gpioC1E14mln_gpio_pin_s19mln_gpio_pin_dirs_eh>
 2c8:	20 e0       	ldi	r18, 0x00	; 0
 2ca:	40 e2       	ldi	r20, 0x20	; 32
 2cc:	54 e0       	ldi	r21, 0x04	; 4
 2ce:	63 e0       	ldi	r22, 0x03	; 3
 2d0:	84 e2       	ldi	r24, 0x24	; 36
 2d2:	90 e4       	ldi	r25, 0x40	; 64
 2d4:	0e 94 e5 00 	call	0x1ca	; 0x1ca <_ZN8mln_gpioC1E14mln_gpio_pin_s19mln_gpio_pin_dirs_eh>
 2d8:	44 ef       	ldi	r20, 0xF4	; 244
 2da:	51 e0       	ldi	r21, 0x01	; 1
 2dc:	60 e0       	ldi	r22, 0x00	; 0
 2de:	8c e1       	ldi	r24, 0x1C	; 28
 2e0:	90 e4       	ldi	r25, 0x40	; 64
 2e2:	0e 94 79 02 	call	0x4f2	; 0x4f2 <_ZN9mln_timerC1E16mln_timer_inst_ej>
 2e6:	0f 91       	pop	r16
 2e8:	08 95       	ret

000002ea <main>:
}

int main(void)
{
	led_timer.set_isr([](void){led_builtin.toggle();});
 2ea:	6e e3       	ldi	r22, 0x3E	; 62
 2ec:	71 e0       	ldi	r23, 0x01	; 1
 2ee:	8c e1       	ldi	r24, 0x1C	; 28
 2f0:	90 e4       	ldi	r25, 0x40	; 64
 2f2:	0e 94 f0 02 	call	0x5e0	; 0x5e0 <_ZN9mln_timer7set_isrEPFvvE>
	
	sei();
 2f6:	78 94       	sei

	led_timer.start();
 2f8:	8c e1       	ldi	r24, 0x1C	; 28
 2fa:	90 e4       	ldi	r25, 0x40	; 64
 2fc:	0e 94 02 03 	call	0x604	; 0x604 <_ZN9mln_timer5startEv>

	while (1) 
	{
		buffer[0] = 0b00110000 | (uint8_t)(dac_value >> 8); buffer[1] = (uint8_t)(dac_value & 0xFF);
 300:	80 91 1a 40 	lds	r24, 0x401A	; 0x80401a <dac_value>
 304:	90 91 1b 40 	lds	r25, 0x401B	; 0x80401b <dac_value+0x1>
 308:	e8 e1       	ldi	r30, 0x18	; 24
 30a:	f0 e4       	ldi	r31, 0x40	; 64
 30c:	29 2f       	mov	r18, r25
 30e:	20 63       	ori	r18, 0x30	; 48
 310:	20 83       	st	Z, r18
 312:	81 83       	std	Z+1, r24	; 0x01
		dac_value = (dac_value + 4) % 4096;
 314:	04 96       	adiw	r24, 0x04	; 4
 316:	9f 70       	andi	r25, 0x0F	; 15
 318:	80 93 1a 40 	sts	0x401A, r24	; 0x80401a <dac_value>
 31c:	90 93 1b 40 	sts	0x401B, r25	; 0x80401b <dac_value+0x1>
		spi.write(buffer, 2);
 320:	42 e0       	ldi	r20, 0x02	; 2
 322:	bf 01       	movw	r22, r30
 324:	8e e2       	ldi	r24, 0x2E	; 46
 326:	90 e4       	ldi	r25, 0x40	; 64
 328:	0e 94 21 02 	call	0x442	; 0x442 <_ZN7mln_spi5writeEPhh>
		ldac.clear();
 32c:	89 e2       	ldi	r24, 0x29	; 41
 32e:	90 e4       	ldi	r25, 0x40	; 64
 330:	0e 94 0e 01 	call	0x21c	; 0x21c <_ZN8mln_gpio5clearEv>
		ldac.set();
 334:	89 e2       	ldi	r24, 0x29	; 41
 336:	90 e4       	ldi	r25, 0x40	; 64
 338:	0e 94 f0 00 	call	0x1e0	; 0x1e0 <_ZN8mln_gpio3setEv>
 33c:	e1 cf       	rjmp	.-62     	; 0x300 <main+0x16>

0000033e <_GLOBAL__sub_I_uart>:
    }
}
 33e:	6f ef       	ldi	r22, 0xFF	; 255
 340:	7f ef       	ldi	r23, 0xFF	; 255
 342:	81 e0       	ldi	r24, 0x01	; 1
 344:	90 e0       	ldi	r25, 0x00	; 0
 346:	0e 94 43 01 	call	0x286	; 0x286 <_Z41__static_initialization_and_destruction_0ii>
 34a:	08 95       	ret

0000034c <_ZN7mln_spiC1EP10SPI_struct14mln_gpio_pin_s>:
		*buffer = spi->DATA;
		buffer++;
	}
	
	cs.clear();
}
 34c:	6f 92       	push	r6
 34e:	7f 92       	push	r7
 350:	8f 92       	push	r8
 352:	cf 92       	push	r12
 354:	df 92       	push	r13
 356:	ef 92       	push	r14
 358:	ff 92       	push	r15
 35a:	0f 93       	push	r16
 35c:	1f 93       	push	r17
 35e:	cf 93       	push	r28
 360:	df 93       	push	r29
 362:	cd b7       	in	r28, 0x3d	; 61
 364:	de b7       	in	r29, 0x3e	; 62
 366:	64 97       	sbiw	r28, 0x14	; 20
 368:	cd bf       	out	0x3d, r28	; 61
 36a:	de bf       	out	0x3e, r29	; 62
 36c:	7c 01       	movw	r14, r24
 36e:	8b 01       	movw	r16, r22
 370:	39 01       	movw	r6, r18
 372:	84 2e       	mov	r8, r20
 374:	6c 01       	movw	r12, r24
 376:	22 e0       	ldi	r18, 0x02	; 2
 378:	c2 0e       	add	r12, r18
 37a:	d1 1c       	adc	r13, r1
 37c:	c6 01       	movw	r24, r12
 37e:	0e 94 a7 00 	call	0x14e	; 0x14e <_ZN8mln_gpioC1Ev>
 382:	d7 01       	movw	r26, r14
 384:	0d 93       	st	X+, r16
 386:	1c 93       	st	X, r17
 388:	00 e0       	ldi	r16, 0x00	; 0
 38a:	20 e0       	ldi	r18, 0x00	; 0
 38c:	68 2d       	mov	r22, r8
 38e:	a3 01       	movw	r20, r6
 390:	ce 01       	movw	r24, r28
 392:	01 96       	adiw	r24, 0x01	; 1
 394:	0e 94 e5 00 	call	0x1ca	; 0x1ca <_ZN8mln_gpioC1E14mln_gpio_pin_s19mln_gpio_pin_dirs_eh>
 398:	85 e0       	ldi	r24, 0x05	; 5
 39a:	fe 01       	movw	r30, r28
 39c:	31 96       	adiw	r30, 0x01	; 1
 39e:	d6 01       	movw	r26, r12
 3a0:	01 90       	ld	r0, Z+
 3a2:	0d 92       	st	X+, r0
 3a4:	8a 95       	dec	r24
 3a6:	e1 f7       	brne	.-8      	; 0x3a0 <_ZN7mln_spiC1EP10SPI_struct14mln_gpio_pin_s+0x54>
 3a8:	f7 01       	movw	r30, r14
 3aa:	80 81       	ld	r24, Z
 3ac:	91 81       	ldd	r25, Z+1	; 0x01
 3ae:	80 34       	cpi	r24, 0x40	; 64
 3b0:	99 40       	sbci	r25, 0x09	; 9
 3b2:	21 f4       	brne	.+8      	; 0x3bc <_ZN7mln_spiC1EP10SPI_struct14mln_gpio_pin_s+0x70>
 3b4:	40 e0       	ldi	r20, 0x00	; 0
 3b6:	54 e0       	ldi	r21, 0x04	; 4
 3b8:	64 e0       	ldi	r22, 0x04	; 4
 3ba:	03 c0       	rjmp	.+6      	; 0x3c2 <_ZN7mln_spiC1EP10SPI_struct14mln_gpio_pin_s+0x76>
 3bc:	40 e4       	ldi	r20, 0x40	; 64
 3be:	54 e0       	ldi	r21, 0x04	; 4
 3c0:	60 e0       	ldi	r22, 0x00	; 0
 3c2:	00 e0       	ldi	r16, 0x00	; 0
 3c4:	20 e0       	ldi	r18, 0x00	; 0
 3c6:	ce 01       	movw	r24, r28
 3c8:	40 96       	adiw	r24, 0x10	; 16
 3ca:	0e 94 e5 00 	call	0x1ca	; 0x1ca <_ZN8mln_gpioC1E14mln_gpio_pin_s19mln_gpio_pin_dirs_eh>
 3ce:	d7 01       	movw	r26, r14
 3d0:	8d 91       	ld	r24, X+
 3d2:	9c 91       	ld	r25, X
 3d4:	80 34       	cpi	r24, 0x40	; 64
 3d6:	99 40       	sbci	r25, 0x09	; 9
 3d8:	21 f4       	brne	.+8      	; 0x3e2 <_ZN7mln_spiC1EP10SPI_struct14mln_gpio_pin_s+0x96>
 3da:	40 e0       	ldi	r20, 0x00	; 0
 3dc:	54 e0       	ldi	r21, 0x04	; 4
 3de:	65 e0       	ldi	r22, 0x05	; 5
 3e0:	03 c0       	rjmp	.+6      	; 0x3e8 <_ZN7mln_spiC1EP10SPI_struct14mln_gpio_pin_s+0x9c>
 3e2:	40 e4       	ldi	r20, 0x40	; 64
 3e4:	54 e0       	ldi	r21, 0x04	; 4
 3e6:	61 e0       	ldi	r22, 0x01	; 1
 3e8:	00 e0       	ldi	r16, 0x00	; 0
 3ea:	21 e0       	ldi	r18, 0x01	; 1
 3ec:	ce 01       	movw	r24, r28
 3ee:	0b 96       	adiw	r24, 0x0b	; 11
 3f0:	0e 94 e5 00 	call	0x1ca	; 0x1ca <_ZN8mln_gpioC1E14mln_gpio_pin_s19mln_gpio_pin_dirs_eh>
 3f4:	f7 01       	movw	r30, r14
 3f6:	80 81       	ld	r24, Z
 3f8:	91 81       	ldd	r25, Z+1	; 0x01
 3fa:	80 34       	cpi	r24, 0x40	; 64
 3fc:	99 40       	sbci	r25, 0x09	; 9
 3fe:	21 f4       	brne	.+8      	; 0x408 <__LOCK_REGION_LENGTH__+0x8>
 400:	40 e0       	ldi	r20, 0x00	; 0
 402:	54 e0       	ldi	r21, 0x04	; 4
 404:	66 e0       	ldi	r22, 0x06	; 6
 406:	03 c0       	rjmp	.+6      	; 0x40e <__LOCK_REGION_LENGTH__+0xe>
 408:	40 e4       	ldi	r20, 0x40	; 64
 40a:	54 e0       	ldi	r21, 0x04	; 4
 40c:	62 e0       	ldi	r22, 0x02	; 2
 40e:	00 e0       	ldi	r16, 0x00	; 0
 410:	20 e0       	ldi	r18, 0x00	; 0
 412:	ce 01       	movw	r24, r28
 414:	06 96       	adiw	r24, 0x06	; 6
 416:	0e 94 e5 00 	call	0x1ca	; 0x1ca <_ZN8mln_gpioC1E14mln_gpio_pin_s19mln_gpio_pin_dirs_eh>
 41a:	d7 01       	movw	r26, r14
 41c:	ed 91       	ld	r30, X+
 41e:	fc 91       	ld	r31, X
 420:	81 e3       	ldi	r24, 0x31	; 49
 422:	80 83       	st	Z, r24
 424:	64 96       	adiw	r28, 0x14	; 20
 426:	cd bf       	out	0x3d, r28	; 61
 428:	de bf       	out	0x3e, r29	; 62
 42a:	df 91       	pop	r29
 42c:	cf 91       	pop	r28
 42e:	1f 91       	pop	r17
 430:	0f 91       	pop	r16
 432:	ff 90       	pop	r15
 434:	ef 90       	pop	r14
 436:	df 90       	pop	r13
 438:	cf 90       	pop	r12
 43a:	8f 90       	pop	r8
 43c:	7f 90       	pop	r7
 43e:	6f 90       	pop	r6
 440:	08 95       	ret

00000442 <_ZN7mln_spi5writeEPhh>:

void mln_spi::write(uint8_t* buffer, uint8_t length)
{
 442:	cf 92       	push	r12
 444:	df 92       	push	r13
 446:	ef 92       	push	r14
 448:	ff 92       	push	r15
 44a:	1f 93       	push	r17
 44c:	cf 93       	push	r28
 44e:	df 93       	push	r29
 450:	ec 01       	movw	r28, r24
 452:	7b 01       	movw	r14, r22
 454:	14 2f       	mov	r17, r20
	cs.clear();
 456:	6c 01       	movw	r12, r24
 458:	82 e0       	ldi	r24, 0x02	; 2
 45a:	c8 0e       	add	r12, r24
 45c:	d1 1c       	adc	r13, r1
 45e:	c6 01       	movw	r24, r12
 460:	0e 94 0e 01 	call	0x21c	; 0x21c <_ZN8mln_gpio5clearEv>

	while(length--)
 464:	9f ef       	ldi	r25, 0xFF	; 255
 466:	91 0f       	add	r25, r17
 468:	11 23       	and	r17, r17
 46a:	69 f0       	breq	.+26     	; 0x486 <_ZN7mln_spi5writeEPhh+0x44>
	{
		spi->DATA = *buffer;
 46c:	e8 81       	ld	r30, Y
 46e:	f9 81       	ldd	r31, Y+1	; 0x01
 470:	d7 01       	movw	r26, r14
 472:	8d 91       	ld	r24, X+
 474:	7d 01       	movw	r14, r26
 476:	84 83       	std	Z+4, r24	; 0x04
		buffer++;
		while (!(spi->INTFLAGS & SPI_RXCIF_bm));
 478:	e8 81       	ld	r30, Y
 47a:	f9 81       	ldd	r31, Y+1	; 0x01
 47c:	83 81       	ldd	r24, Z+3	; 0x03
 47e:	88 23       	and	r24, r24
 480:	dc f7       	brge	.-10     	; 0x478 <_ZN7mln_spi5writeEPhh+0x36>

void mln_spi::write(uint8_t* buffer, uint8_t length)
{
	cs.clear();

	while(length--)
 482:	19 2f       	mov	r17, r25
 484:	ef cf       	rjmp	.-34     	; 0x464 <_ZN7mln_spi5writeEPhh+0x22>
		spi->DATA = *buffer;
		buffer++;
		while (!(spi->INTFLAGS & SPI_RXCIF_bm));
	}
	
	cs.set();
 486:	c6 01       	movw	r24, r12
 488:	0e 94 f0 00 	call	0x1e0	; 0x1e0 <_ZN8mln_gpio3setEv>
}
 48c:	df 91       	pop	r29
 48e:	cf 91       	pop	r28
 490:	1f 91       	pop	r17
 492:	ff 90       	pop	r15
 494:	ef 90       	pop	r14
 496:	df 90       	pop	r13
 498:	cf 90       	pop	r12
 49a:	08 95       	ret

0000049c <_Z17MLN_TIMER_GET_DIVj>:
}

float mln_timer::get_period(void)
{
	return actual_period;
}
 49c:	0f 93       	push	r16
 49e:	1f 93       	push	r17
 4a0:	cf 93       	push	r28
 4a2:	8c 01       	movw	r16, r24
 4a4:	c0 e0       	ldi	r28, 0x00	; 0
 4a6:	ec 2f       	mov	r30, r28
 4a8:	f0 e0       	ldi	r31, 0x00	; 0
 4aa:	ee 0f       	add	r30, r30
 4ac:	ff 1f       	adc	r31, r31
 4ae:	e8 5f       	subi	r30, 0xF8	; 248
 4b0:	ff 4b       	sbci	r31, 0xBF	; 191
 4b2:	a0 81       	ld	r26, Z
 4b4:	b1 81       	ldd	r27, Z+1	; 0x01
 4b6:	28 e1       	ldi	r18, 0x18	; 24
 4b8:	3c ef       	ldi	r19, 0xFC	; 252
 4ba:	47 ee       	ldi	r20, 0xE7	; 231
 4bc:	53 e0       	ldi	r21, 0x03	; 3
 4be:	0e 94 9c 07 	call	0xf38	; 0xf38 <__muluhisi3>
 4c2:	20 e0       	ldi	r18, 0x00	; 0
 4c4:	39 e0       	ldi	r19, 0x09	; 9
 4c6:	4d e3       	ldi	r20, 0x3D	; 61
 4c8:	50 e0       	ldi	r21, 0x00	; 0
 4ca:	0e 94 7a 07 	call	0xef4	; 0xef4 <__udivmodsi4>
 4ce:	c8 01       	movw	r24, r16
 4d0:	a0 e0       	ldi	r26, 0x00	; 0
 4d2:	b0 e0       	ldi	r27, 0x00	; 0
 4d4:	28 17       	cp	r18, r24
 4d6:	39 07       	cpc	r19, r25
 4d8:	4a 07       	cpc	r20, r26
 4da:	5b 07       	cpc	r21, r27
 4dc:	28 f4       	brcc	.+10     	; 0x4e8 <_Z17MLN_TIMER_GET_DIVj+0x4c>
 4de:	cf 5f       	subi	r28, 0xFF	; 255
 4e0:	c8 30       	cpi	r28, 0x08	; 8
 4e2:	09 f7       	brne	.-62     	; 0x4a6 <_Z17MLN_TIMER_GET_DIVj+0xa>
 4e4:	8f ef       	ldi	r24, 0xFF	; 255
 4e6:	01 c0       	rjmp	.+2      	; 0x4ea <_Z17MLN_TIMER_GET_DIVj+0x4e>
 4e8:	8c 2f       	mov	r24, r28
 4ea:	cf 91       	pop	r28
 4ec:	1f 91       	pop	r17
 4ee:	0f 91       	pop	r16
 4f0:	08 95       	ret

000004f2 <_ZN9mln_timerC1E16mln_timer_inst_ej>:
 4f2:	8f 92       	push	r8
 4f4:	9f 92       	push	r9
 4f6:	af 92       	push	r10
 4f8:	bf 92       	push	r11
 4fa:	ff 92       	push	r15
 4fc:	0f 93       	push	r16
 4fe:	1f 93       	push	r17
 500:	cf 93       	push	r28
 502:	df 93       	push	r29
 504:	ec 01       	movw	r28, r24
 506:	8a 01       	movw	r16, r20
 508:	61 11       	cpse	r22, r1
 50a:	05 c0       	rjmp	.+10     	; 0x516 <_ZN9mln_timerC1E16mln_timer_inst_ej+0x24>
 50c:	80 e0       	ldi	r24, 0x00	; 0
 50e:	9a e0       	ldi	r25, 0x0A	; 10
 510:	88 83       	st	Y, r24
 512:	99 83       	std	Y+1, r25	; 0x01
 514:	04 c0       	rjmp	.+8      	; 0x51e <_ZN9mln_timerC1E16mln_timer_inst_ej+0x2c>
 516:	80 e4       	ldi	r24, 0x40	; 64
 518:	9a e0       	ldi	r25, 0x0A	; 10
 51a:	88 83       	st	Y, r24
 51c:	99 83       	std	Y+1, r25	; 0x01
 51e:	c8 01       	movw	r24, r16
 520:	0e 94 4e 02 	call	0x49c	; 0x49c <_Z17MLN_TIMER_GET_DIVj>
 524:	90 e0       	ldi	r25, 0x00	; 0
 526:	fc 01       	movw	r30, r24
 528:	e0 50       	subi	r30, 0x00	; 0
 52a:	f0 4c       	sbci	r31, 0xC0	; 192
 52c:	f0 80       	ld	r15, Z
 52e:	88 0f       	add	r24, r24
 530:	99 1f       	adc	r25, r25
 532:	fc 01       	movw	r30, r24
 534:	e8 5f       	subi	r30, 0xF8	; 248
 536:	ff 4b       	sbci	r31, 0xBF	; 191
 538:	a0 81       	ld	r26, Z
 53a:	b1 81       	ldd	r27, Z+1	; 0x01
 53c:	28 e1       	ldi	r18, 0x18	; 24
 53e:	3c ef       	ldi	r19, 0xFC	; 252
 540:	47 ee       	ldi	r20, 0xE7	; 231
 542:	53 e0       	ldi	r21, 0x03	; 3
 544:	0e 94 9c 07 	call	0xf38	; 0xf38 <__muluhisi3>
 548:	20 e0       	ldi	r18, 0x00	; 0
 54a:	39 e0       	ldi	r19, 0x09	; 9
 54c:	4d e3       	ldi	r20, 0x3D	; 61
 54e:	50 e0       	ldi	r21, 0x00	; 0
 550:	0e 94 7a 07 	call	0xef4	; 0xef4 <__udivmodsi4>
 554:	ca 01       	movw	r24, r20
 556:	b9 01       	movw	r22, r18
 558:	0e 94 7f 06 	call	0xcfe	; 0xcfe <__floatunsisf>
 55c:	4b 01       	movw	r8, r22
 55e:	5c 01       	movw	r10, r24
 560:	b8 01       	movw	r22, r16
 562:	80 e0       	ldi	r24, 0x00	; 0
 564:	90 e0       	ldi	r25, 0x00	; 0
 566:	0e 94 7f 06 	call	0xcfe	; 0xcfe <__floatunsisf>
 56a:	a5 01       	movw	r20, r10
 56c:	94 01       	movw	r18, r8
 56e:	0e 94 de 05 	call	0xbbc	; 0xbbc <__divsf3>
 572:	20 e0       	ldi	r18, 0x00	; 0
 574:	3f ef       	ldi	r19, 0xFF	; 255
 576:	4f e7       	ldi	r20, 0x7F	; 127
 578:	57 e4       	ldi	r21, 0x47	; 71
 57a:	0e 94 0d 07 	call	0xe1a	; 0xe1a <__mulsf3>
 57e:	0e 94 50 06 	call	0xca0	; 0xca0 <__fixunssfsi>
 582:	e8 81       	ld	r30, Y
 584:	f9 81       	ldd	r31, Y+1	; 0x01
 586:	21 e0       	ldi	r18, 0x01	; 1
 588:	22 87       	std	Z+10, r18	; 0x0a
 58a:	e8 81       	ld	r30, Y
 58c:	f9 81       	ldd	r31, Y+1	; 0x01
 58e:	66 a3       	std	Z+38, r22	; 0x26
 590:	77 a3       	std	Z+39, r23	; 0x27
 592:	e8 81       	ld	r30, Y
 594:	f9 81       	ldd	r31, Y+1	; 0x01
 596:	20 e8       	ldi	r18, 0x80	; 128
 598:	20 83       	st	Z, r18
 59a:	e8 81       	ld	r30, Y
 59c:	f9 81       	ldd	r31, Y+1	; 0x01
 59e:	20 81       	ld	r18, Z
 5a0:	f2 2a       	or	r15, r18
 5a2:	f0 82       	st	Z, r15
 5a4:	80 e0       	ldi	r24, 0x00	; 0
 5a6:	90 e0       	ldi	r25, 0x00	; 0
 5a8:	0e 94 7f 06 	call	0xcfe	; 0xcfe <__floatunsisf>
 5ac:	20 e0       	ldi	r18, 0x00	; 0
 5ae:	3f ef       	ldi	r19, 0xFF	; 255
 5b0:	4f e7       	ldi	r20, 0x7F	; 127
 5b2:	57 e4       	ldi	r21, 0x47	; 71
 5b4:	0e 94 de 05 	call	0xbbc	; 0xbbc <__divsf3>
 5b8:	9b 01       	movw	r18, r22
 5ba:	ac 01       	movw	r20, r24
 5bc:	c5 01       	movw	r24, r10
 5be:	b4 01       	movw	r22, r8
 5c0:	0e 94 0d 07 	call	0xe1a	; 0xe1a <__mulsf3>
 5c4:	6a 83       	std	Y+2, r22	; 0x02
 5c6:	7b 83       	std	Y+3, r23	; 0x03
 5c8:	8c 83       	std	Y+4, r24	; 0x04
 5ca:	9d 83       	std	Y+5, r25	; 0x05
 5cc:	df 91       	pop	r29
 5ce:	cf 91       	pop	r28
 5d0:	1f 91       	pop	r17
 5d2:	0f 91       	pop	r16
 5d4:	ff 90       	pop	r15
 5d6:	bf 90       	pop	r11
 5d8:	af 90       	pop	r10
 5da:	9f 90       	pop	r9
 5dc:	8f 90       	pop	r8
 5de:	08 95       	ret

000005e0 <_ZN9mln_timer7set_isrEPFvvE>:
 5e0:	fc 01       	movw	r30, r24
 5e2:	66 83       	std	Z+6, r22	; 0x06
 5e4:	77 83       	std	Z+7, r23	; 0x07
 5e6:	20 81       	ld	r18, Z
 5e8:	31 81       	ldd	r19, Z+1	; 0x01
 5ea:	21 15       	cp	r18, r1
 5ec:	3a 40       	sbci	r19, 0x0A	; 10
 5ee:	29 f4       	brne	.+10     	; 0x5fa <_ZN9mln_timer7set_isrEPFvvE+0x1a>
 5f0:	80 93 74 40 	sts	0x4074, r24	; 0x804074 <timer0_isr>
 5f4:	90 93 75 40 	sts	0x4075, r25	; 0x804075 <timer0_isr+0x1>
 5f8:	08 95       	ret
 5fa:	80 93 72 40 	sts	0x4072, r24	; 0x804072 <timer1_isr>
 5fe:	90 93 73 40 	sts	0x4073, r25	; 0x804073 <timer1_isr+0x1>
 602:	08 95       	ret

00000604 <_ZN9mln_timer5startEv>:
 604:	dc 01       	movw	r26, r24
 606:	ed 91       	ld	r30, X+
 608:	fc 91       	ld	r31, X
 60a:	80 81       	ld	r24, Z
 60c:	81 60       	ori	r24, 0x01	; 1
 60e:	80 83       	st	Z, r24
 610:	08 95       	ret

00000612 <__vector_9>:

ISR(TCA0_OVF_vect)
{
 612:	1f 92       	push	r1
 614:	0f 92       	push	r0
 616:	0f b6       	in	r0, 0x3f	; 63
 618:	0f 92       	push	r0
 61a:	11 24       	eor	r1, r1
 61c:	0b b6       	in	r0, 0x3b	; 59
 61e:	0f 92       	push	r0
 620:	2f 93       	push	r18
 622:	3f 93       	push	r19
 624:	4f 93       	push	r20
 626:	5f 93       	push	r21
 628:	6f 93       	push	r22
 62a:	7f 93       	push	r23
 62c:	8f 93       	push	r24
 62e:	9f 93       	push	r25
 630:	af 93       	push	r26
 632:	bf 93       	push	r27
 634:	ef 93       	push	r30
 636:	ff 93       	push	r31
	if(timer0_isr->isr)
 638:	e0 91 74 40 	lds	r30, 0x4074	; 0x804074 <timer0_isr>
 63c:	f0 91 75 40 	lds	r31, 0x4075	; 0x804075 <timer0_isr+0x1>
 640:	06 80       	ldd	r0, Z+6	; 0x06
 642:	f7 81       	ldd	r31, Z+7	; 0x07
 644:	e0 2d       	mov	r30, r0
 646:	30 97       	sbiw	r30, 0x00	; 0
 648:	09 f0       	breq	.+2      	; 0x64c <__vector_9+0x3a>
		timer0_isr->isr();
 64a:	09 95       	icall
	TCA0.SINGLE.INTFLAGS = TCA_SINGLE_OVF_bm;
 64c:	81 e0       	ldi	r24, 0x01	; 1
 64e:	80 93 0b 0a 	sts	0x0A0B, r24	; 0x800a0b <__TEXT_REGION_LENGTH__+0x7e0a0b>
}
 652:	ff 91       	pop	r31
 654:	ef 91       	pop	r30
 656:	bf 91       	pop	r27
 658:	af 91       	pop	r26
 65a:	9f 91       	pop	r25
 65c:	8f 91       	pop	r24
 65e:	7f 91       	pop	r23
 660:	6f 91       	pop	r22
 662:	5f 91       	pop	r21
 664:	4f 91       	pop	r20
 666:	3f 91       	pop	r19
 668:	2f 91       	pop	r18
 66a:	0f 90       	pop	r0
 66c:	0b be       	out	0x3b, r0	; 59
 66e:	0f 90       	pop	r0
 670:	0f be       	out	0x3f, r0	; 63
 672:	0f 90       	pop	r0
 674:	1f 90       	pop	r1
 676:	18 95       	reti

00000678 <__vector_47>:

#ifdef TCA1
ISR(TCA1_OVF_vect)
{
 678:	1f 92       	push	r1
 67a:	0f 92       	push	r0
 67c:	0f b6       	in	r0, 0x3f	; 63
 67e:	0f 92       	push	r0
 680:	11 24       	eor	r1, r1
 682:	0b b6       	in	r0, 0x3b	; 59
 684:	0f 92       	push	r0
 686:	2f 93       	push	r18
 688:	3f 93       	push	r19
 68a:	4f 93       	push	r20
 68c:	5f 93       	push	r21
 68e:	6f 93       	push	r22
 690:	7f 93       	push	r23
 692:	8f 93       	push	r24
 694:	9f 93       	push	r25
 696:	af 93       	push	r26
 698:	bf 93       	push	r27
 69a:	ef 93       	push	r30
 69c:	ff 93       	push	r31
	if(timer1_isr->isr)
 69e:	e0 91 72 40 	lds	r30, 0x4072	; 0x804072 <timer1_isr>
 6a2:	f0 91 73 40 	lds	r31, 0x4073	; 0x804073 <timer1_isr+0x1>
 6a6:	06 80       	ldd	r0, Z+6	; 0x06
 6a8:	f7 81       	ldd	r31, Z+7	; 0x07
 6aa:	e0 2d       	mov	r30, r0
 6ac:	30 97       	sbiw	r30, 0x00	; 0
 6ae:	09 f0       	breq	.+2      	; 0x6b2 <__vector_47+0x3a>
		timer1_isr->isr();
 6b0:	09 95       	icall
		
	TCA1.SINGLE.INTFLAGS = TCA_SINGLE_OVF_bm;
 6b2:	81 e0       	ldi	r24, 0x01	; 1
 6b4:	80 93 4b 0a 	sts	0x0A4B, r24	; 0x800a4b <__TEXT_REGION_LENGTH__+0x7e0a4b>
}
 6b8:	ff 91       	pop	r31
 6ba:	ef 91       	pop	r30
 6bc:	bf 91       	pop	r27
 6be:	af 91       	pop	r26
 6c0:	9f 91       	pop	r25
 6c2:	8f 91       	pop	r24
 6c4:	7f 91       	pop	r23
 6c6:	6f 91       	pop	r22
 6c8:	5f 91       	pop	r21
 6ca:	4f 91       	pop	r20
 6cc:	3f 91       	pop	r19
 6ce:	2f 91       	pop	r18
 6d0:	0f 90       	pop	r0
 6d2:	0b be       	out	0x3b, r0	; 59
 6d4:	0f 90       	pop	r0
 6d6:	0f be       	out	0x3f, r0	; 63
 6d8:	0f 90       	pop	r0
 6da:	1f 90       	pop	r1
 6dc:	18 95       	reti

000006de <_Z17MLN_UART_TO_USART15mln_uart_inst_e>:
	return !(inst->STATUS & USART_RXCIF_bm);
}
bool mln_uart::data_available(void)
{
	return index;
}
 6de:	82 30       	cpi	r24, 0x02	; 2
 6e0:	59 f0       	breq	.+22     	; 0x6f8 <_Z17MLN_UART_TO_USART15mln_uart_inst_e+0x1a>
 6e2:	18 f4       	brcc	.+6      	; 0x6ea <_Z17MLN_UART_TO_USART15mln_uart_inst_e+0xc>
 6e4:	81 30       	cpi	r24, 0x01	; 1
 6e6:	89 f0       	breq	.+34     	; 0x70a <_Z17MLN_UART_TO_USART15mln_uart_inst_e+0x2c>
 6e8:	04 c0       	rjmp	.+8      	; 0x6f2 <_Z17MLN_UART_TO_USART15mln_uart_inst_e+0x14>
 6ea:	83 30       	cpi	r24, 0x03	; 3
 6ec:	41 f0       	breq	.+16     	; 0x6fe <_Z17MLN_UART_TO_USART15mln_uart_inst_e+0x20>
 6ee:	84 30       	cpi	r24, 0x04	; 4
 6f0:	49 f0       	breq	.+18     	; 0x704 <_Z17MLN_UART_TO_USART15mln_uart_inst_e+0x26>
 6f2:	80 e0       	ldi	r24, 0x00	; 0
 6f4:	98 e0       	ldi	r25, 0x08	; 8
 6f6:	08 95       	ret
 6f8:	80 e4       	ldi	r24, 0x40	; 64
 6fa:	98 e0       	ldi	r25, 0x08	; 8
 6fc:	08 95       	ret
 6fe:	80 e6       	ldi	r24, 0x60	; 96
 700:	98 e0       	ldi	r25, 0x08	; 8
 702:	08 95       	ret
 704:	80 e8       	ldi	r24, 0x80	; 128
 706:	98 e0       	ldi	r25, 0x08	; 8
 708:	08 95       	ret
 70a:	80 e2       	ldi	r24, 0x20	; 32
 70c:	98 e0       	ldi	r25, 0x08	; 8
 70e:	08 95       	ret

00000710 <_ZN8mln_uart9init_pinsE15mln_uart_inst_e>:
 710:	ef 92       	push	r14
 712:	ff 92       	push	r15
 714:	0f 93       	push	r16
 716:	cf 93       	push	r28
 718:	df 93       	push	r29
 71a:	cd b7       	in	r28, 0x3d	; 61
 71c:	de b7       	in	r29, 0x3e	; 62
 71e:	e2 97       	sbiw	r28, 0x32	; 50
 720:	cd bf       	out	0x3d, r28	; 61
 722:	de bf       	out	0x3e, r29	; 62
 724:	7c 01       	movw	r14, r24
 726:	62 30       	cpi	r22, 0x02	; 2
 728:	09 f4       	brne	.+2      	; 0x72c <_ZN8mln_uart9init_pinsE15mln_uart_inst_e+0x1c>
 72a:	55 c0       	rjmp	.+170    	; 0x7d6 <_ZN8mln_uart9init_pinsE15mln_uart_inst_e+0xc6>
 72c:	28 f4       	brcc	.+10     	; 0x738 <_ZN8mln_uart9init_pinsE15mln_uart_inst_e+0x28>
 72e:	66 23       	and	r22, r22
 730:	51 f0       	breq	.+20     	; 0x746 <_ZN8mln_uart9init_pinsE15mln_uart_inst_e+0x36>
 732:	61 30       	cpi	r22, 0x01	; 1
 734:	61 f1       	breq	.+88     	; 0x78e <_ZN8mln_uart9init_pinsE15mln_uart_inst_e+0x7e>
 736:	ba c0       	rjmp	.+372    	; 0x8ac <_ZN8mln_uart9init_pinsE15mln_uart_inst_e+0x19c>
 738:	63 30       	cpi	r22, 0x03	; 3
 73a:	09 f4       	brne	.+2      	; 0x73e <_ZN8mln_uart9init_pinsE15mln_uart_inst_e+0x2e>
 73c:	70 c0       	rjmp	.+224    	; 0x81e <_ZN8mln_uart9init_pinsE15mln_uart_inst_e+0x10e>
 73e:	64 30       	cpi	r22, 0x04	; 4
 740:	09 f4       	brne	.+2      	; 0x744 <_ZN8mln_uart9init_pinsE15mln_uart_inst_e+0x34>
 742:	91 c0       	rjmp	.+290    	; 0x866 <_ZN8mln_uart9init_pinsE15mln_uart_inst_e+0x156>
 744:	b3 c0       	rjmp	.+358    	; 0x8ac <_ZN8mln_uart9init_pinsE15mln_uart_inst_e+0x19c>
 746:	00 e0       	ldi	r16, 0x00	; 0
 748:	20 e0       	ldi	r18, 0x00	; 0
 74a:	40 e0       	ldi	r20, 0x00	; 0
 74c:	54 e0       	ldi	r21, 0x04	; 4
 74e:	60 e0       	ldi	r22, 0x00	; 0
 750:	ce 01       	movw	r24, r28
 752:	8e 96       	adiw	r24, 0x2e	; 46
 754:	0e 94 e5 00 	call	0x1ca	; 0x1ca <_ZN8mln_gpioC1E14mln_gpio_pin_s19mln_gpio_pin_dirs_eh>
 758:	85 e0       	ldi	r24, 0x05	; 5
 75a:	fe 01       	movw	r30, r28
 75c:	be 96       	adiw	r30, 0x2e	; 46
 75e:	d7 01       	movw	r26, r14
 760:	12 96       	adiw	r26, 0x02	; 2
 762:	01 90       	ld	r0, Z+
 764:	0d 92       	st	X+, r0
 766:	8a 95       	dec	r24
 768:	e1 f7       	brne	.-8      	; 0x762 <_ZN8mln_uart9init_pinsE15mln_uart_inst_e+0x52>
 76a:	21 e0       	ldi	r18, 0x01	; 1
 76c:	40 e0       	ldi	r20, 0x00	; 0
 76e:	54 e0       	ldi	r21, 0x04	; 4
 770:	61 e0       	ldi	r22, 0x01	; 1
 772:	ce 01       	movw	r24, r28
 774:	89 96       	adiw	r24, 0x29	; 41
 776:	0e 94 e5 00 	call	0x1ca	; 0x1ca <_ZN8mln_gpioC1E14mln_gpio_pin_s19mln_gpio_pin_dirs_eh>
 77a:	85 e0       	ldi	r24, 0x05	; 5
 77c:	fe 01       	movw	r30, r28
 77e:	b9 96       	adiw	r30, 0x29	; 41
 780:	d7 01       	movw	r26, r14
 782:	17 96       	adiw	r26, 0x07	; 7
 784:	01 90       	ld	r0, Z+
 786:	0d 92       	st	X+, r0
 788:	8a 95       	dec	r24
 78a:	e1 f7       	brne	.-8      	; 0x784 <_ZN8mln_uart9init_pinsE15mln_uart_inst_e+0x74>
 78c:	8f c0       	rjmp	.+286    	; 0x8ac <_ZN8mln_uart9init_pinsE15mln_uart_inst_e+0x19c>
 78e:	00 e0       	ldi	r16, 0x00	; 0
 790:	20 e0       	ldi	r18, 0x00	; 0
 792:	40 e4       	ldi	r20, 0x40	; 64
 794:	54 e0       	ldi	r21, 0x04	; 4
 796:	60 e0       	ldi	r22, 0x00	; 0
 798:	ce 01       	movw	r24, r28
 79a:	84 96       	adiw	r24, 0x24	; 36
 79c:	0e 94 e5 00 	call	0x1ca	; 0x1ca <_ZN8mln_gpioC1E14mln_gpio_pin_s19mln_gpio_pin_dirs_eh>
 7a0:	85 e0       	ldi	r24, 0x05	; 5
 7a2:	fe 01       	movw	r30, r28
 7a4:	b4 96       	adiw	r30, 0x24	; 36
 7a6:	d7 01       	movw	r26, r14
 7a8:	12 96       	adiw	r26, 0x02	; 2
 7aa:	01 90       	ld	r0, Z+
 7ac:	0d 92       	st	X+, r0
 7ae:	8a 95       	dec	r24
 7b0:	e1 f7       	brne	.-8      	; 0x7aa <_ZN8mln_uart9init_pinsE15mln_uart_inst_e+0x9a>
 7b2:	21 e0       	ldi	r18, 0x01	; 1
 7b4:	40 e4       	ldi	r20, 0x40	; 64
 7b6:	54 e0       	ldi	r21, 0x04	; 4
 7b8:	61 e0       	ldi	r22, 0x01	; 1
 7ba:	ce 01       	movw	r24, r28
 7bc:	4f 96       	adiw	r24, 0x1f	; 31
 7be:	0e 94 e5 00 	call	0x1ca	; 0x1ca <_ZN8mln_gpioC1E14mln_gpio_pin_s19mln_gpio_pin_dirs_eh>
 7c2:	85 e0       	ldi	r24, 0x05	; 5
 7c4:	fe 01       	movw	r30, r28
 7c6:	7f 96       	adiw	r30, 0x1f	; 31
 7c8:	d7 01       	movw	r26, r14
 7ca:	17 96       	adiw	r26, 0x07	; 7
 7cc:	01 90       	ld	r0, Z+
 7ce:	0d 92       	st	X+, r0
 7d0:	8a 95       	dec	r24
 7d2:	e1 f7       	brne	.-8      	; 0x7cc <_ZN8mln_uart9init_pinsE15mln_uart_inst_e+0xbc>
 7d4:	6b c0       	rjmp	.+214    	; 0x8ac <_ZN8mln_uart9init_pinsE15mln_uart_inst_e+0x19c>
 7d6:	00 e0       	ldi	r16, 0x00	; 0
 7d8:	20 e0       	ldi	r18, 0x00	; 0
 7da:	40 ea       	ldi	r20, 0xA0	; 160
 7dc:	54 e0       	ldi	r21, 0x04	; 4
 7de:	60 e0       	ldi	r22, 0x00	; 0
 7e0:	ce 01       	movw	r24, r28
 7e2:	4a 96       	adiw	r24, 0x1a	; 26
 7e4:	0e 94 e5 00 	call	0x1ca	; 0x1ca <_ZN8mln_gpioC1E14mln_gpio_pin_s19mln_gpio_pin_dirs_eh>
 7e8:	85 e0       	ldi	r24, 0x05	; 5
 7ea:	fe 01       	movw	r30, r28
 7ec:	7a 96       	adiw	r30, 0x1a	; 26
 7ee:	d7 01       	movw	r26, r14
 7f0:	12 96       	adiw	r26, 0x02	; 2
 7f2:	01 90       	ld	r0, Z+
 7f4:	0d 92       	st	X+, r0
 7f6:	8a 95       	dec	r24
 7f8:	e1 f7       	brne	.-8      	; 0x7f2 <_ZN8mln_uart9init_pinsE15mln_uart_inst_e+0xe2>
 7fa:	21 e0       	ldi	r18, 0x01	; 1
 7fc:	40 ea       	ldi	r20, 0xA0	; 160
 7fe:	54 e0       	ldi	r21, 0x04	; 4
 800:	61 e0       	ldi	r22, 0x01	; 1
 802:	ce 01       	movw	r24, r28
 804:	45 96       	adiw	r24, 0x15	; 21
 806:	0e 94 e5 00 	call	0x1ca	; 0x1ca <_ZN8mln_gpioC1E14mln_gpio_pin_s19mln_gpio_pin_dirs_eh>
 80a:	85 e0       	ldi	r24, 0x05	; 5
 80c:	fe 01       	movw	r30, r28
 80e:	75 96       	adiw	r30, 0x15	; 21
 810:	d7 01       	movw	r26, r14
 812:	17 96       	adiw	r26, 0x07	; 7
 814:	01 90       	ld	r0, Z+
 816:	0d 92       	st	X+, r0
 818:	8a 95       	dec	r24
 81a:	e1 f7       	brne	.-8      	; 0x814 <_ZN8mln_uart9init_pinsE15mln_uart_inst_e+0x104>
 81c:	47 c0       	rjmp	.+142    	; 0x8ac <_ZN8mln_uart9init_pinsE15mln_uart_inst_e+0x19c>
 81e:	00 e0       	ldi	r16, 0x00	; 0
 820:	20 e0       	ldi	r18, 0x00	; 0
 822:	40 e2       	ldi	r20, 0x20	; 32
 824:	54 e0       	ldi	r21, 0x04	; 4
 826:	60 e0       	ldi	r22, 0x00	; 0
 828:	ce 01       	movw	r24, r28
 82a:	40 96       	adiw	r24, 0x10	; 16
 82c:	0e 94 e5 00 	call	0x1ca	; 0x1ca <_ZN8mln_gpioC1E14mln_gpio_pin_s19mln_gpio_pin_dirs_eh>
 830:	85 e0       	ldi	r24, 0x05	; 5
 832:	fe 01       	movw	r30, r28
 834:	70 96       	adiw	r30, 0x10	; 16
 836:	d7 01       	movw	r26, r14
 838:	12 96       	adiw	r26, 0x02	; 2
 83a:	01 90       	ld	r0, Z+
 83c:	0d 92       	st	X+, r0
 83e:	8a 95       	dec	r24
 840:	e1 f7       	brne	.-8      	; 0x83a <_ZN8mln_uart9init_pinsE15mln_uart_inst_e+0x12a>
 842:	21 e0       	ldi	r18, 0x01	; 1
 844:	40 e2       	ldi	r20, 0x20	; 32
 846:	54 e0       	ldi	r21, 0x04	; 4
 848:	61 e0       	ldi	r22, 0x01	; 1
 84a:	ce 01       	movw	r24, r28
 84c:	0b 96       	adiw	r24, 0x0b	; 11
 84e:	0e 94 e5 00 	call	0x1ca	; 0x1ca <_ZN8mln_gpioC1E14mln_gpio_pin_s19mln_gpio_pin_dirs_eh>
 852:	85 e0       	ldi	r24, 0x05	; 5
 854:	fe 01       	movw	r30, r28
 856:	3b 96       	adiw	r30, 0x0b	; 11
 858:	d7 01       	movw	r26, r14
 85a:	17 96       	adiw	r26, 0x07	; 7
 85c:	01 90       	ld	r0, Z+
 85e:	0d 92       	st	X+, r0
 860:	8a 95       	dec	r24
 862:	e1 f7       	brne	.-8      	; 0x85c <_ZN8mln_uart9init_pinsE15mln_uart_inst_e+0x14c>
 864:	23 c0       	rjmp	.+70     	; 0x8ac <_ZN8mln_uart9init_pinsE15mln_uart_inst_e+0x19c>
 866:	00 e0       	ldi	r16, 0x00	; 0
 868:	20 e0       	ldi	r18, 0x00	; 0
 86a:	40 e8       	ldi	r20, 0x80	; 128
 86c:	54 e0       	ldi	r21, 0x04	; 4
 86e:	60 e0       	ldi	r22, 0x00	; 0
 870:	ce 01       	movw	r24, r28
 872:	06 96       	adiw	r24, 0x06	; 6
 874:	0e 94 e5 00 	call	0x1ca	; 0x1ca <_ZN8mln_gpioC1E14mln_gpio_pin_s19mln_gpio_pin_dirs_eh>
 878:	85 e0       	ldi	r24, 0x05	; 5
 87a:	fe 01       	movw	r30, r28
 87c:	36 96       	adiw	r30, 0x06	; 6
 87e:	d7 01       	movw	r26, r14
 880:	12 96       	adiw	r26, 0x02	; 2
 882:	01 90       	ld	r0, Z+
 884:	0d 92       	st	X+, r0
 886:	8a 95       	dec	r24
 888:	e1 f7       	brne	.-8      	; 0x882 <_ZN8mln_uart9init_pinsE15mln_uart_inst_e+0x172>
 88a:	21 e0       	ldi	r18, 0x01	; 1
 88c:	40 e8       	ldi	r20, 0x80	; 128
 88e:	54 e0       	ldi	r21, 0x04	; 4
 890:	61 e0       	ldi	r22, 0x01	; 1
 892:	ce 01       	movw	r24, r28
 894:	01 96       	adiw	r24, 0x01	; 1
 896:	0e 94 e5 00 	call	0x1ca	; 0x1ca <_ZN8mln_gpioC1E14mln_gpio_pin_s19mln_gpio_pin_dirs_eh>
 89a:	85 e0       	ldi	r24, 0x05	; 5
 89c:	fe 01       	movw	r30, r28
 89e:	31 96       	adiw	r30, 0x01	; 1
 8a0:	d7 01       	movw	r26, r14
 8a2:	17 96       	adiw	r26, 0x07	; 7
 8a4:	01 90       	ld	r0, Z+
 8a6:	0d 92       	st	X+, r0
 8a8:	8a 95       	dec	r24
 8aa:	e1 f7       	brne	.-8      	; 0x8a4 <_ZN8mln_uart9init_pinsE15mln_uart_inst_e+0x194>
 8ac:	e2 96       	adiw	r28, 0x32	; 50
 8ae:	cd bf       	out	0x3d, r28	; 61
 8b0:	de bf       	out	0x3e, r29	; 62
 8b2:	df 91       	pop	r29
 8b4:	cf 91       	pop	r28
 8b6:	0f 91       	pop	r16
 8b8:	ff 90       	pop	r15
 8ba:	ef 90       	pop	r14
 8bc:	08 95       	ret

000008be <_ZN8mln_uart11init_streamEv>:
 8be:	fc 01       	movw	r30, r24
 8c0:	80 93 76 40 	sts	0x4076, r24	; 0x804076 <mln_uart_stream_uart>
 8c4:	90 93 77 40 	sts	0x4077, r25	; 0x804077 <mln_uart_stream_uart+0x1>
 8c8:	8f e0       	ldi	r24, 0x0F	; 15
 8ca:	95 e0       	ldi	r25, 0x05	; 5
 8cc:	87 ab       	std	Z+55, r24	; 0x37
 8ce:	90 af       	std	Z+56, r25	; 0x38
 8d0:	8d ee       	ldi	r24, 0xED	; 237
 8d2:	94 e0       	ldi	r25, 0x04	; 4
 8d4:	85 ab       	std	Z+53, r24	; 0x35
 8d6:	96 ab       	std	Z+54, r25	; 0x36
 8d8:	83 e0       	ldi	r24, 0x03	; 3
 8da:	80 ab       	std	Z+48, r24	; 0x30
 8dc:	bd 96       	adiw	r30, 0x2d	; 45
 8de:	a8 e7       	ldi	r26, 0x78	; 120
 8e0:	b0 e4       	ldi	r27, 0x40	; 64
 8e2:	12 96       	adiw	r26, 0x02	; 2
 8e4:	ed 93       	st	X+, r30
 8e6:	fc 93       	st	X, r31
 8e8:	13 97       	sbiw	r26, 0x03	; 3
 8ea:	ed 93       	st	X+, r30
 8ec:	fc 93       	st	X, r31
 8ee:	08 95       	ret

000008f0 <_ZN8mln_uartC1E15mln_uart_inst_em>:
 8f0:	cf 92       	push	r12
 8f2:	df 92       	push	r13
 8f4:	ef 92       	push	r14
 8f6:	ff 92       	push	r15
 8f8:	0f 93       	push	r16
 8fa:	1f 93       	push	r17
 8fc:	cf 93       	push	r28
 8fe:	df 93       	push	r29
 900:	ec 01       	movw	r28, r24
 902:	16 2f       	mov	r17, r22
 904:	69 01       	movw	r12, r18
 906:	7a 01       	movw	r14, r20
 908:	02 96       	adiw	r24, 0x02	; 2
 90a:	0e 94 a7 00 	call	0x14e	; 0x14e <_ZN8mln_gpioC1Ev>
 90e:	ce 01       	movw	r24, r28
 910:	07 96       	adiw	r24, 0x07	; 7
 912:	0e 94 a7 00 	call	0x14e	; 0x14e <_ZN8mln_gpioC1Ev>
 916:	16 30       	cpi	r17, 0x06	; 6
 918:	d8 f5       	brcc	.+118    	; 0x990 <_ZN8mln_uartC1E15mln_uart_inst_em+0xa0>
 91a:	fe 01       	movw	r30, r28
 91c:	3c 96       	adiw	r30, 0x0c	; 12
 91e:	80 e2       	ldi	r24, 0x20	; 32
 920:	df 01       	movw	r26, r30
 922:	1d 92       	st	X+, r1
 924:	8a 95       	dec	r24
 926:	e9 f7       	brne	.-6      	; 0x922 <_ZN8mln_uartC1E15mln_uart_inst_em+0x32>
 928:	1c a6       	std	Y+44, r1	; 0x2c
 92a:	81 2f       	mov	r24, r17
 92c:	0e 94 6f 03 	call	0x6de	; 0x6de <_Z17MLN_UART_TO_USART15mln_uart_inst_e>
 930:	88 83       	st	Y, r24
 932:	99 83       	std	Y+1, r25	; 0x01
 934:	61 2f       	mov	r22, r17
 936:	ce 01       	movw	r24, r28
 938:	0e 94 88 03 	call	0x710	; 0x710 <_ZN8mln_uart9init_pinsE15mln_uart_inst_e>
 93c:	08 81       	ld	r16, Y
 93e:	19 81       	ldd	r17, Y+1	; 0x01
 940:	c7 01       	movw	r24, r14
 942:	b6 01       	movw	r22, r12
 944:	0e 94 7f 06 	call	0xcfe	; 0xcfe <__floatunsisf>
 948:	20 e0       	ldi	r18, 0x00	; 0
 94a:	30 e0       	ldi	r19, 0x00	; 0
 94c:	40 e8       	ldi	r20, 0x80	; 128
 94e:	51 e4       	ldi	r21, 0x41	; 65
 950:	0e 94 0d 07 	call	0xe1a	; 0xe1a <__mulsf3>
 954:	9b 01       	movw	r18, r22
 956:	ac 01       	movw	r20, r24
 958:	60 e0       	ldi	r22, 0x00	; 0
 95a:	74 e2       	ldi	r23, 0x24	; 36
 95c:	84 e7       	ldi	r24, 0x74	; 116
 95e:	9d e4       	ldi	r25, 0x4D	; 77
 960:	0e 94 de 05 	call	0xbbc	; 0xbbc <__divsf3>
 964:	20 e0       	ldi	r18, 0x00	; 0
 966:	30 e0       	ldi	r19, 0x00	; 0
 968:	40 e0       	ldi	r20, 0x00	; 0
 96a:	5f e3       	ldi	r21, 0x3F	; 63
 96c:	0e 94 72 05 	call	0xae4	; 0xae4 <__addsf3>
 970:	0e 94 50 06 	call	0xca0	; 0xca0 <__fixunssfsi>
 974:	f8 01       	movw	r30, r16
 976:	60 87       	std	Z+8, r22	; 0x08
 978:	71 87       	std	Z+9, r23	; 0x09
 97a:	e8 81       	ld	r30, Y
 97c:	f9 81       	ldd	r31, Y+1	; 0x01
 97e:	80 e8       	ldi	r24, 0x80	; 128
 980:	85 83       	std	Z+5, r24	; 0x05
 982:	e8 81       	ld	r30, Y
 984:	f9 81       	ldd	r31, Y+1	; 0x01
 986:	80 ec       	ldi	r24, 0xC0	; 192
 988:	86 83       	std	Z+6, r24	; 0x06
 98a:	ce 01       	movw	r24, r28
 98c:	0e 94 5f 04 	call	0x8be	; 0x8be <_ZN8mln_uart11init_streamEv>
 990:	df 91       	pop	r29
 992:	cf 91       	pop	r28
 994:	1f 91       	pop	r17
 996:	0f 91       	pop	r16
 998:	ff 90       	pop	r15
 99a:	ef 90       	pop	r14
 99c:	df 90       	pop	r13
 99e:	cf 90       	pop	r12
 9a0:	08 95       	ret

000009a2 <_ZN8mln_uart10is_busy_txEv>:
 9a2:	dc 01       	movw	r26, r24
 9a4:	ed 91       	ld	r30, X+
 9a6:	fc 91       	ld	r31, X
 9a8:	84 81       	ldd	r24, Z+4	; 0x04
 9aa:	82 95       	swap	r24
 9ac:	86 95       	lsr	r24
 9ae:	87 70       	andi	r24, 0x07	; 7
 9b0:	91 e0       	ldi	r25, 0x01	; 1
 9b2:	89 27       	eor	r24, r25
 9b4:	81 70       	andi	r24, 0x01	; 1
 9b6:	08 95       	ret

000009b8 <_ZN8mln_uart5writeEh>:
 9b8:	1f 93       	push	r17
 9ba:	cf 93       	push	r28
 9bc:	df 93       	push	r29
 9be:	ec 01       	movw	r28, r24
 9c0:	16 2f       	mov	r17, r22
 9c2:	ce 01       	movw	r24, r28
 9c4:	0e 94 d1 04 	call	0x9a2	; 0x9a2 <_ZN8mln_uart10is_busy_txEv>
 9c8:	81 11       	cpse	r24, r1
 9ca:	fb cf       	rjmp	.-10     	; 0x9c2 <_ZN8mln_uart5writeEh+0xa>
 9cc:	e8 81       	ld	r30, Y
 9ce:	f9 81       	ldd	r31, Y+1	; 0x01
 9d0:	12 83       	std	Z+2, r17	; 0x02
 9d2:	df 91       	pop	r29
 9d4:	cf 91       	pop	r28
 9d6:	1f 91       	pop	r17
 9d8:	08 95       	ret

000009da <_Z21mln_uart_stream_writecP6__file>:
 9da:	68 2f       	mov	r22, r24
 9dc:	80 91 76 40 	lds	r24, 0x4076	; 0x804076 <mln_uart_stream_uart>
 9e0:	90 91 77 40 	lds	r25, 0x4077	; 0x804077 <mln_uart_stream_uart+0x1>
 9e4:	0e 94 dc 04 	call	0x9b8	; 0x9b8 <_ZN8mln_uart5writeEh>
 9e8:	80 e0       	ldi	r24, 0x00	; 0
 9ea:	90 e0       	ldi	r25, 0x00	; 0
 9ec:	08 95       	ret

000009ee <_ZN8mln_uart10is_busy_rxEv>:
 9ee:	dc 01       	movw	r26, r24
 9f0:	ed 91       	ld	r30, X+
 9f2:	fc 91       	ld	r31, X
 9f4:	84 81       	ldd	r24, Z+4	; 0x04
 9f6:	80 95       	com	r24
 9f8:	88 1f       	adc	r24, r24
 9fa:	88 27       	eor	r24, r24
 9fc:	88 1f       	adc	r24, r24
 9fe:	08 95       	ret

00000a00 <_ZN8mln_uart4readEv>:
 a00:	cf 93       	push	r28
 a02:	df 93       	push	r29
 a04:	ec 01       	movw	r28, r24
 a06:	ce 01       	movw	r24, r28
 a08:	0e 94 f7 04 	call	0x9ee	; 0x9ee <_ZN8mln_uart10is_busy_rxEv>
 a0c:	81 11       	cpse	r24, r1
 a0e:	fb cf       	rjmp	.-10     	; 0xa06 <_ZN8mln_uart4readEv+0x6>
 a10:	e8 81       	ld	r30, Y
 a12:	f9 81       	ldd	r31, Y+1	; 0x01
 a14:	81 81       	ldd	r24, Z+1	; 0x01
 a16:	80 81       	ld	r24, Z
 a18:	df 91       	pop	r29
 a1a:	cf 91       	pop	r28
 a1c:	08 95       	ret

00000a1e <_Z20mln_uart_stream_readP6__file>:
 a1e:	80 91 76 40 	lds	r24, 0x4076	; 0x804076 <mln_uart_stream_uart>
 a22:	90 91 77 40 	lds	r25, 0x4077	; 0x804077 <mln_uart_stream_uart+0x1>
 a26:	0e 94 00 05 	call	0xa00	; 0xa00 <_ZN8mln_uart4readEv>
 a2a:	90 e0       	ldi	r25, 0x00	; 0
 a2c:	08 95       	ret

00000a2e <_ZN8mln_uart4pushEv>:
 a2e:	0f 93       	push	r16
 a30:	1f 93       	push	r17
 a32:	cf 93       	push	r28
 a34:	df 93       	push	r29
 a36:	ec 01       	movw	r28, r24
 a38:	0c a5       	ldd	r16, Y+44	; 0x2c
 a3a:	10 e0       	ldi	r17, 0x00	; 0
 a3c:	0e 94 00 05 	call	0xa00	; 0xa00 <_ZN8mln_uart4readEv>
 a40:	fe 01       	movw	r30, r28
 a42:	e0 0f       	add	r30, r16
 a44:	f1 1f       	adc	r31, r17
 a46:	84 87       	std	Z+12, r24	; 0x0c
 a48:	8c a5       	ldd	r24, Y+44	; 0x2c
 a4a:	90 e0       	ldi	r25, 0x00	; 0
 a4c:	01 96       	adiw	r24, 0x01	; 1
 a4e:	8f 71       	andi	r24, 0x1F	; 31
 a50:	90 78       	andi	r25, 0x80	; 128
 a52:	99 23       	and	r25, r25
 a54:	24 f4       	brge	.+8      	; 0xa5e <_ZN8mln_uart4pushEv+0x30>
 a56:	01 97       	sbiw	r24, 0x01	; 1
 a58:	80 6e       	ori	r24, 0xE0	; 224
 a5a:	9f 6f       	ori	r25, 0xFF	; 255
 a5c:	01 96       	adiw	r24, 0x01	; 1
 a5e:	8c a7       	std	Y+44, r24	; 0x2c
 a60:	df 91       	pop	r29
 a62:	cf 91       	pop	r28
 a64:	1f 91       	pop	r17
 a66:	0f 91       	pop	r16
 a68:	08 95       	ret

00000a6a <__vector_53>:



ISR(USART3_RXC_vect)
{
 a6a:	1f 92       	push	r1
 a6c:	0f 92       	push	r0
 a6e:	0f b6       	in	r0, 0x3f	; 63
 a70:	0f 92       	push	r0
 a72:	11 24       	eor	r1, r1
 a74:	0b b6       	in	r0, 0x3b	; 59
 a76:	0f 92       	push	r0
 a78:	2f 93       	push	r18
 a7a:	3f 93       	push	r19
 a7c:	4f 93       	push	r20
 a7e:	5f 93       	push	r21
 a80:	6f 93       	push	r22
 a82:	7f 93       	push	r23
 a84:	8f 93       	push	r24
 a86:	9f 93       	push	r25
 a88:	af 93       	push	r26
 a8a:	bf 93       	push	r27
 a8c:	ef 93       	push	r30
 a8e:	ff 93       	push	r31
	mln_uart_stream_uart->push();
 a90:	80 91 76 40 	lds	r24, 0x4076	; 0x804076 <mln_uart_stream_uart>
 a94:	90 91 77 40 	lds	r25, 0x4077	; 0x804077 <mln_uart_stream_uart+0x1>
 a98:	0e 94 17 05 	call	0xa2e	; 0xa2e <_ZN8mln_uart4pushEv>
	if(!mln_uart_stream_uart->is_busy_rx())
 a9c:	80 91 76 40 	lds	r24, 0x4076	; 0x804076 <mln_uart_stream_uart>
 aa0:	90 91 77 40 	lds	r25, 0x4077	; 0x804077 <mln_uart_stream_uart+0x1>
 aa4:	0e 94 f7 04 	call	0x9ee	; 0x9ee <_ZN8mln_uart10is_busy_rxEv>
 aa8:	81 11       	cpse	r24, r1
 aaa:	08 c0       	rjmp	.+16     	; 0xabc <__vector_53+0x52>
		mln_uart_stream_uart->isr();
 aac:	e0 91 76 40 	lds	r30, 0x4076	; 0x804076 <mln_uart_stream_uart>
 ab0:	f0 91 77 40 	lds	r31, 0x4077	; 0x804077 <mln_uart_stream_uart+0x1>
 ab4:	03 ac       	ldd	r0, Z+59	; 0x3b
 ab6:	f4 ad       	ldd	r31, Z+60	; 0x3c
 ab8:	e0 2d       	mov	r30, r0
 aba:	09 95       	icall
 abc:	ff 91       	pop	r31
 abe:	ef 91       	pop	r30
 ac0:	bf 91       	pop	r27
 ac2:	af 91       	pop	r26
 ac4:	9f 91       	pop	r25
 ac6:	8f 91       	pop	r24
 ac8:	7f 91       	pop	r23
 aca:	6f 91       	pop	r22
 acc:	5f 91       	pop	r21
 ace:	4f 91       	pop	r20
 ad0:	3f 91       	pop	r19
 ad2:	2f 91       	pop	r18
 ad4:	0f 90       	pop	r0
 ad6:	0b be       	out	0x3b, r0	; 59
 ad8:	0f 90       	pop	r0
 ada:	0f be       	out	0x3f, r0	; 63
 adc:	0f 90       	pop	r0
 ade:	1f 90       	pop	r1
 ae0:	18 95       	reti

00000ae2 <__subsf3>:
 ae2:	50 58       	subi	r21, 0x80	; 128

00000ae4 <__addsf3>:
 ae4:	bb 27       	eor	r27, r27
 ae6:	aa 27       	eor	r26, r26
 ae8:	0e 94 89 05 	call	0xb12	; 0xb12 <__addsf3x>
 aec:	0c 94 d3 06 	jmp	0xda6	; 0xda6 <__fp_round>
 af0:	0e 94 c5 06 	call	0xd8a	; 0xd8a <__fp_pscA>
 af4:	38 f0       	brcs	.+14     	; 0xb04 <__addsf3+0x20>
 af6:	0e 94 cc 06 	call	0xd98	; 0xd98 <__fp_pscB>
 afa:	20 f0       	brcs	.+8      	; 0xb04 <__addsf3+0x20>
 afc:	39 f4       	brne	.+14     	; 0xb0c <__addsf3+0x28>
 afe:	9f 3f       	cpi	r25, 0xFF	; 255
 b00:	19 f4       	brne	.+6      	; 0xb08 <__addsf3+0x24>
 b02:	26 f4       	brtc	.+8      	; 0xb0c <__addsf3+0x28>
 b04:	0c 94 c2 06 	jmp	0xd84	; 0xd84 <__fp_nan>
 b08:	0e f4       	brtc	.+2      	; 0xb0c <__addsf3+0x28>
 b0a:	e0 95       	com	r30
 b0c:	e7 fb       	bst	r30, 7
 b0e:	0c 94 bc 06 	jmp	0xd78	; 0xd78 <__fp_inf>

00000b12 <__addsf3x>:
 b12:	e9 2f       	mov	r30, r25
 b14:	0e 94 e4 06 	call	0xdc8	; 0xdc8 <__fp_split3>
 b18:	58 f3       	brcs	.-42     	; 0xaf0 <__addsf3+0xc>
 b1a:	ba 17       	cp	r27, r26
 b1c:	62 07       	cpc	r22, r18
 b1e:	73 07       	cpc	r23, r19
 b20:	84 07       	cpc	r24, r20
 b22:	95 07       	cpc	r25, r21
 b24:	20 f0       	brcs	.+8      	; 0xb2e <__addsf3x+0x1c>
 b26:	79 f4       	brne	.+30     	; 0xb46 <__addsf3x+0x34>
 b28:	a6 f5       	brtc	.+104    	; 0xb92 <__addsf3x+0x80>
 b2a:	0c 94 06 07 	jmp	0xe0c	; 0xe0c <__fp_zero>
 b2e:	0e f4       	brtc	.+2      	; 0xb32 <__addsf3x+0x20>
 b30:	e0 95       	com	r30
 b32:	0b 2e       	mov	r0, r27
 b34:	ba 2f       	mov	r27, r26
 b36:	a0 2d       	mov	r26, r0
 b38:	0b 01       	movw	r0, r22
 b3a:	b9 01       	movw	r22, r18
 b3c:	90 01       	movw	r18, r0
 b3e:	0c 01       	movw	r0, r24
 b40:	ca 01       	movw	r24, r20
 b42:	a0 01       	movw	r20, r0
 b44:	11 24       	eor	r1, r1
 b46:	ff 27       	eor	r31, r31
 b48:	59 1b       	sub	r21, r25
 b4a:	99 f0       	breq	.+38     	; 0xb72 <__addsf3x+0x60>
 b4c:	59 3f       	cpi	r21, 0xF9	; 249
 b4e:	50 f4       	brcc	.+20     	; 0xb64 <__addsf3x+0x52>
 b50:	50 3e       	cpi	r21, 0xE0	; 224
 b52:	68 f1       	brcs	.+90     	; 0xbae <__addsf3x+0x9c>
 b54:	1a 16       	cp	r1, r26
 b56:	f0 40       	sbci	r31, 0x00	; 0
 b58:	a2 2f       	mov	r26, r18
 b5a:	23 2f       	mov	r18, r19
 b5c:	34 2f       	mov	r19, r20
 b5e:	44 27       	eor	r20, r20
 b60:	58 5f       	subi	r21, 0xF8	; 248
 b62:	f3 cf       	rjmp	.-26     	; 0xb4a <__addsf3x+0x38>
 b64:	46 95       	lsr	r20
 b66:	37 95       	ror	r19
 b68:	27 95       	ror	r18
 b6a:	a7 95       	ror	r26
 b6c:	f0 40       	sbci	r31, 0x00	; 0
 b6e:	53 95       	inc	r21
 b70:	c9 f7       	brne	.-14     	; 0xb64 <__addsf3x+0x52>
 b72:	7e f4       	brtc	.+30     	; 0xb92 <__addsf3x+0x80>
 b74:	1f 16       	cp	r1, r31
 b76:	ba 0b       	sbc	r27, r26
 b78:	62 0b       	sbc	r22, r18
 b7a:	73 0b       	sbc	r23, r19
 b7c:	84 0b       	sbc	r24, r20
 b7e:	ba f0       	brmi	.+46     	; 0xbae <__addsf3x+0x9c>
 b80:	91 50       	subi	r25, 0x01	; 1
 b82:	a1 f0       	breq	.+40     	; 0xbac <__addsf3x+0x9a>
 b84:	ff 0f       	add	r31, r31
 b86:	bb 1f       	adc	r27, r27
 b88:	66 1f       	adc	r22, r22
 b8a:	77 1f       	adc	r23, r23
 b8c:	88 1f       	adc	r24, r24
 b8e:	c2 f7       	brpl	.-16     	; 0xb80 <__addsf3x+0x6e>
 b90:	0e c0       	rjmp	.+28     	; 0xbae <__addsf3x+0x9c>
 b92:	ba 0f       	add	r27, r26
 b94:	62 1f       	adc	r22, r18
 b96:	73 1f       	adc	r23, r19
 b98:	84 1f       	adc	r24, r20
 b9a:	48 f4       	brcc	.+18     	; 0xbae <__addsf3x+0x9c>
 b9c:	87 95       	ror	r24
 b9e:	77 95       	ror	r23
 ba0:	67 95       	ror	r22
 ba2:	b7 95       	ror	r27
 ba4:	f7 95       	ror	r31
 ba6:	9e 3f       	cpi	r25, 0xFE	; 254
 ba8:	08 f0       	brcs	.+2      	; 0xbac <__addsf3x+0x9a>
 baa:	b0 cf       	rjmp	.-160    	; 0xb0c <__addsf3+0x28>
 bac:	93 95       	inc	r25
 bae:	88 0f       	add	r24, r24
 bb0:	08 f0       	brcs	.+2      	; 0xbb4 <__addsf3x+0xa2>
 bb2:	99 27       	eor	r25, r25
 bb4:	ee 0f       	add	r30, r30
 bb6:	97 95       	ror	r25
 bb8:	87 95       	ror	r24
 bba:	08 95       	ret

00000bbc <__divsf3>:
 bbc:	0e 94 f2 05 	call	0xbe4	; 0xbe4 <__divsf3x>
 bc0:	0c 94 d3 06 	jmp	0xda6	; 0xda6 <__fp_round>
 bc4:	0e 94 cc 06 	call	0xd98	; 0xd98 <__fp_pscB>
 bc8:	58 f0       	brcs	.+22     	; 0xbe0 <__divsf3+0x24>
 bca:	0e 94 c5 06 	call	0xd8a	; 0xd8a <__fp_pscA>
 bce:	40 f0       	brcs	.+16     	; 0xbe0 <__divsf3+0x24>
 bd0:	29 f4       	brne	.+10     	; 0xbdc <__divsf3+0x20>
 bd2:	5f 3f       	cpi	r21, 0xFF	; 255
 bd4:	29 f0       	breq	.+10     	; 0xbe0 <__divsf3+0x24>
 bd6:	0c 94 bc 06 	jmp	0xd78	; 0xd78 <__fp_inf>
 bda:	51 11       	cpse	r21, r1
 bdc:	0c 94 07 07 	jmp	0xe0e	; 0xe0e <__fp_szero>
 be0:	0c 94 c2 06 	jmp	0xd84	; 0xd84 <__fp_nan>

00000be4 <__divsf3x>:
 be4:	0e 94 e4 06 	call	0xdc8	; 0xdc8 <__fp_split3>
 be8:	68 f3       	brcs	.-38     	; 0xbc4 <__divsf3+0x8>

00000bea <__divsf3_pse>:
 bea:	99 23       	and	r25, r25
 bec:	b1 f3       	breq	.-20     	; 0xbda <__divsf3+0x1e>
 bee:	55 23       	and	r21, r21
 bf0:	91 f3       	breq	.-28     	; 0xbd6 <__divsf3+0x1a>
 bf2:	95 1b       	sub	r25, r21
 bf4:	55 0b       	sbc	r21, r21
 bf6:	bb 27       	eor	r27, r27
 bf8:	aa 27       	eor	r26, r26
 bfa:	62 17       	cp	r22, r18
 bfc:	73 07       	cpc	r23, r19
 bfe:	84 07       	cpc	r24, r20
 c00:	38 f0       	brcs	.+14     	; 0xc10 <__divsf3_pse+0x26>
 c02:	9f 5f       	subi	r25, 0xFF	; 255
 c04:	5f 4f       	sbci	r21, 0xFF	; 255
 c06:	22 0f       	add	r18, r18
 c08:	33 1f       	adc	r19, r19
 c0a:	44 1f       	adc	r20, r20
 c0c:	aa 1f       	adc	r26, r26
 c0e:	a9 f3       	breq	.-22     	; 0xbfa <__divsf3_pse+0x10>
 c10:	35 d0       	rcall	.+106    	; 0xc7c <__divsf3_pse+0x92>
 c12:	0e 2e       	mov	r0, r30
 c14:	3a f0       	brmi	.+14     	; 0xc24 <__divsf3_pse+0x3a>
 c16:	e0 e8       	ldi	r30, 0x80	; 128
 c18:	32 d0       	rcall	.+100    	; 0xc7e <__divsf3_pse+0x94>
 c1a:	91 50       	subi	r25, 0x01	; 1
 c1c:	50 40       	sbci	r21, 0x00	; 0
 c1e:	e6 95       	lsr	r30
 c20:	00 1c       	adc	r0, r0
 c22:	ca f7       	brpl	.-14     	; 0xc16 <__divsf3_pse+0x2c>
 c24:	2b d0       	rcall	.+86     	; 0xc7c <__divsf3_pse+0x92>
 c26:	fe 2f       	mov	r31, r30
 c28:	29 d0       	rcall	.+82     	; 0xc7c <__divsf3_pse+0x92>
 c2a:	66 0f       	add	r22, r22
 c2c:	77 1f       	adc	r23, r23
 c2e:	88 1f       	adc	r24, r24
 c30:	bb 1f       	adc	r27, r27
 c32:	26 17       	cp	r18, r22
 c34:	37 07       	cpc	r19, r23
 c36:	48 07       	cpc	r20, r24
 c38:	ab 07       	cpc	r26, r27
 c3a:	b0 e8       	ldi	r27, 0x80	; 128
 c3c:	09 f0       	breq	.+2      	; 0xc40 <__divsf3_pse+0x56>
 c3e:	bb 0b       	sbc	r27, r27
 c40:	80 2d       	mov	r24, r0
 c42:	bf 01       	movw	r22, r30
 c44:	ff 27       	eor	r31, r31
 c46:	93 58       	subi	r25, 0x83	; 131
 c48:	5f 4f       	sbci	r21, 0xFF	; 255
 c4a:	3a f0       	brmi	.+14     	; 0xc5a <__divsf3_pse+0x70>
 c4c:	9e 3f       	cpi	r25, 0xFE	; 254
 c4e:	51 05       	cpc	r21, r1
 c50:	78 f0       	brcs	.+30     	; 0xc70 <__divsf3_pse+0x86>
 c52:	0c 94 bc 06 	jmp	0xd78	; 0xd78 <__fp_inf>
 c56:	0c 94 07 07 	jmp	0xe0e	; 0xe0e <__fp_szero>
 c5a:	5f 3f       	cpi	r21, 0xFF	; 255
 c5c:	e4 f3       	brlt	.-8      	; 0xc56 <__divsf3_pse+0x6c>
 c5e:	98 3e       	cpi	r25, 0xE8	; 232
 c60:	d4 f3       	brlt	.-12     	; 0xc56 <__divsf3_pse+0x6c>
 c62:	86 95       	lsr	r24
 c64:	77 95       	ror	r23
 c66:	67 95       	ror	r22
 c68:	b7 95       	ror	r27
 c6a:	f7 95       	ror	r31
 c6c:	9f 5f       	subi	r25, 0xFF	; 255
 c6e:	c9 f7       	brne	.-14     	; 0xc62 <__divsf3_pse+0x78>
 c70:	88 0f       	add	r24, r24
 c72:	91 1d       	adc	r25, r1
 c74:	96 95       	lsr	r25
 c76:	87 95       	ror	r24
 c78:	97 f9       	bld	r25, 7
 c7a:	08 95       	ret
 c7c:	e1 e0       	ldi	r30, 0x01	; 1
 c7e:	66 0f       	add	r22, r22
 c80:	77 1f       	adc	r23, r23
 c82:	88 1f       	adc	r24, r24
 c84:	bb 1f       	adc	r27, r27
 c86:	62 17       	cp	r22, r18
 c88:	73 07       	cpc	r23, r19
 c8a:	84 07       	cpc	r24, r20
 c8c:	ba 07       	cpc	r27, r26
 c8e:	20 f0       	brcs	.+8      	; 0xc98 <__divsf3_pse+0xae>
 c90:	62 1b       	sub	r22, r18
 c92:	73 0b       	sbc	r23, r19
 c94:	84 0b       	sbc	r24, r20
 c96:	ba 0b       	sbc	r27, r26
 c98:	ee 1f       	adc	r30, r30
 c9a:	88 f7       	brcc	.-30     	; 0xc7e <__divsf3_pse+0x94>
 c9c:	e0 95       	com	r30
 c9e:	08 95       	ret

00000ca0 <__fixunssfsi>:
 ca0:	0e 94 ec 06 	call	0xdd8	; 0xdd8 <__fp_splitA>
 ca4:	88 f0       	brcs	.+34     	; 0xcc8 <__fixunssfsi+0x28>
 ca6:	9f 57       	subi	r25, 0x7F	; 127
 ca8:	98 f0       	brcs	.+38     	; 0xcd0 <__fixunssfsi+0x30>
 caa:	b9 2f       	mov	r27, r25
 cac:	99 27       	eor	r25, r25
 cae:	b7 51       	subi	r27, 0x17	; 23
 cb0:	b0 f0       	brcs	.+44     	; 0xcde <__fixunssfsi+0x3e>
 cb2:	e1 f0       	breq	.+56     	; 0xcec <__fixunssfsi+0x4c>
 cb4:	66 0f       	add	r22, r22
 cb6:	77 1f       	adc	r23, r23
 cb8:	88 1f       	adc	r24, r24
 cba:	99 1f       	adc	r25, r25
 cbc:	1a f0       	brmi	.+6      	; 0xcc4 <__fixunssfsi+0x24>
 cbe:	ba 95       	dec	r27
 cc0:	c9 f7       	brne	.-14     	; 0xcb4 <__fixunssfsi+0x14>
 cc2:	14 c0       	rjmp	.+40     	; 0xcec <__fixunssfsi+0x4c>
 cc4:	b1 30       	cpi	r27, 0x01	; 1
 cc6:	91 f0       	breq	.+36     	; 0xcec <__fixunssfsi+0x4c>
 cc8:	0e 94 06 07 	call	0xe0c	; 0xe0c <__fp_zero>
 ccc:	b1 e0       	ldi	r27, 0x01	; 1
 cce:	08 95       	ret
 cd0:	0c 94 06 07 	jmp	0xe0c	; 0xe0c <__fp_zero>
 cd4:	67 2f       	mov	r22, r23
 cd6:	78 2f       	mov	r23, r24
 cd8:	88 27       	eor	r24, r24
 cda:	b8 5f       	subi	r27, 0xF8	; 248
 cdc:	39 f0       	breq	.+14     	; 0xcec <__fixunssfsi+0x4c>
 cde:	b9 3f       	cpi	r27, 0xF9	; 249
 ce0:	cc f3       	brlt	.-14     	; 0xcd4 <__fixunssfsi+0x34>
 ce2:	86 95       	lsr	r24
 ce4:	77 95       	ror	r23
 ce6:	67 95       	ror	r22
 ce8:	b3 95       	inc	r27
 cea:	d9 f7       	brne	.-10     	; 0xce2 <__fixunssfsi+0x42>
 cec:	3e f4       	brtc	.+14     	; 0xcfc <__fixunssfsi+0x5c>
 cee:	90 95       	com	r25
 cf0:	80 95       	com	r24
 cf2:	70 95       	com	r23
 cf4:	61 95       	neg	r22
 cf6:	7f 4f       	sbci	r23, 0xFF	; 255
 cf8:	8f 4f       	sbci	r24, 0xFF	; 255
 cfa:	9f 4f       	sbci	r25, 0xFF	; 255
 cfc:	08 95       	ret

00000cfe <__floatunsisf>:
 cfe:	e8 94       	clt
 d00:	09 c0       	rjmp	.+18     	; 0xd14 <__floatsisf+0x12>

00000d02 <__floatsisf>:
 d02:	97 fb       	bst	r25, 7
 d04:	3e f4       	brtc	.+14     	; 0xd14 <__floatsisf+0x12>
 d06:	90 95       	com	r25
 d08:	80 95       	com	r24
 d0a:	70 95       	com	r23
 d0c:	61 95       	neg	r22
 d0e:	7f 4f       	sbci	r23, 0xFF	; 255
 d10:	8f 4f       	sbci	r24, 0xFF	; 255
 d12:	9f 4f       	sbci	r25, 0xFF	; 255
 d14:	99 23       	and	r25, r25
 d16:	a9 f0       	breq	.+42     	; 0xd42 <__floatsisf+0x40>
 d18:	f9 2f       	mov	r31, r25
 d1a:	96 e9       	ldi	r25, 0x96	; 150
 d1c:	bb 27       	eor	r27, r27
 d1e:	93 95       	inc	r25
 d20:	f6 95       	lsr	r31
 d22:	87 95       	ror	r24
 d24:	77 95       	ror	r23
 d26:	67 95       	ror	r22
 d28:	b7 95       	ror	r27
 d2a:	f1 11       	cpse	r31, r1
 d2c:	f8 cf       	rjmp	.-16     	; 0xd1e <__floatsisf+0x1c>
 d2e:	fa f4       	brpl	.+62     	; 0xd6e <__floatsisf+0x6c>
 d30:	bb 0f       	add	r27, r27
 d32:	11 f4       	brne	.+4      	; 0xd38 <__floatsisf+0x36>
 d34:	60 ff       	sbrs	r22, 0
 d36:	1b c0       	rjmp	.+54     	; 0xd6e <__floatsisf+0x6c>
 d38:	6f 5f       	subi	r22, 0xFF	; 255
 d3a:	7f 4f       	sbci	r23, 0xFF	; 255
 d3c:	8f 4f       	sbci	r24, 0xFF	; 255
 d3e:	9f 4f       	sbci	r25, 0xFF	; 255
 d40:	16 c0       	rjmp	.+44     	; 0xd6e <__floatsisf+0x6c>
 d42:	88 23       	and	r24, r24
 d44:	11 f0       	breq	.+4      	; 0xd4a <__floatsisf+0x48>
 d46:	96 e9       	ldi	r25, 0x96	; 150
 d48:	11 c0       	rjmp	.+34     	; 0xd6c <__floatsisf+0x6a>
 d4a:	77 23       	and	r23, r23
 d4c:	21 f0       	breq	.+8      	; 0xd56 <__floatsisf+0x54>
 d4e:	9e e8       	ldi	r25, 0x8E	; 142
 d50:	87 2f       	mov	r24, r23
 d52:	76 2f       	mov	r23, r22
 d54:	05 c0       	rjmp	.+10     	; 0xd60 <__floatsisf+0x5e>
 d56:	66 23       	and	r22, r22
 d58:	71 f0       	breq	.+28     	; 0xd76 <__floatsisf+0x74>
 d5a:	96 e8       	ldi	r25, 0x86	; 134
 d5c:	86 2f       	mov	r24, r22
 d5e:	70 e0       	ldi	r23, 0x00	; 0
 d60:	60 e0       	ldi	r22, 0x00	; 0
 d62:	2a f0       	brmi	.+10     	; 0xd6e <__floatsisf+0x6c>
 d64:	9a 95       	dec	r25
 d66:	66 0f       	add	r22, r22
 d68:	77 1f       	adc	r23, r23
 d6a:	88 1f       	adc	r24, r24
 d6c:	da f7       	brpl	.-10     	; 0xd64 <__floatsisf+0x62>
 d6e:	88 0f       	add	r24, r24
 d70:	96 95       	lsr	r25
 d72:	87 95       	ror	r24
 d74:	97 f9       	bld	r25, 7
 d76:	08 95       	ret

00000d78 <__fp_inf>:
 d78:	97 f9       	bld	r25, 7
 d7a:	9f 67       	ori	r25, 0x7F	; 127
 d7c:	80 e8       	ldi	r24, 0x80	; 128
 d7e:	70 e0       	ldi	r23, 0x00	; 0
 d80:	60 e0       	ldi	r22, 0x00	; 0
 d82:	08 95       	ret

00000d84 <__fp_nan>:
 d84:	9f ef       	ldi	r25, 0xFF	; 255
 d86:	80 ec       	ldi	r24, 0xC0	; 192
 d88:	08 95       	ret

00000d8a <__fp_pscA>:
 d8a:	00 24       	eor	r0, r0
 d8c:	0a 94       	dec	r0
 d8e:	16 16       	cp	r1, r22
 d90:	17 06       	cpc	r1, r23
 d92:	18 06       	cpc	r1, r24
 d94:	09 06       	cpc	r0, r25
 d96:	08 95       	ret

00000d98 <__fp_pscB>:
 d98:	00 24       	eor	r0, r0
 d9a:	0a 94       	dec	r0
 d9c:	12 16       	cp	r1, r18
 d9e:	13 06       	cpc	r1, r19
 da0:	14 06       	cpc	r1, r20
 da2:	05 06       	cpc	r0, r21
 da4:	08 95       	ret

00000da6 <__fp_round>:
 da6:	09 2e       	mov	r0, r25
 da8:	03 94       	inc	r0
 daa:	00 0c       	add	r0, r0
 dac:	11 f4       	brne	.+4      	; 0xdb2 <__fp_round+0xc>
 dae:	88 23       	and	r24, r24
 db0:	52 f0       	brmi	.+20     	; 0xdc6 <__fp_round+0x20>
 db2:	bb 0f       	add	r27, r27
 db4:	40 f4       	brcc	.+16     	; 0xdc6 <__fp_round+0x20>
 db6:	bf 2b       	or	r27, r31
 db8:	11 f4       	brne	.+4      	; 0xdbe <__fp_round+0x18>
 dba:	60 ff       	sbrs	r22, 0
 dbc:	04 c0       	rjmp	.+8      	; 0xdc6 <__fp_round+0x20>
 dbe:	6f 5f       	subi	r22, 0xFF	; 255
 dc0:	7f 4f       	sbci	r23, 0xFF	; 255
 dc2:	8f 4f       	sbci	r24, 0xFF	; 255
 dc4:	9f 4f       	sbci	r25, 0xFF	; 255
 dc6:	08 95       	ret

00000dc8 <__fp_split3>:
 dc8:	57 fd       	sbrc	r21, 7
 dca:	90 58       	subi	r25, 0x80	; 128
 dcc:	44 0f       	add	r20, r20
 dce:	55 1f       	adc	r21, r21
 dd0:	59 f0       	breq	.+22     	; 0xde8 <__fp_splitA+0x10>
 dd2:	5f 3f       	cpi	r21, 0xFF	; 255
 dd4:	71 f0       	breq	.+28     	; 0xdf2 <__fp_splitA+0x1a>
 dd6:	47 95       	ror	r20

00000dd8 <__fp_splitA>:
 dd8:	88 0f       	add	r24, r24
 dda:	97 fb       	bst	r25, 7
 ddc:	99 1f       	adc	r25, r25
 dde:	61 f0       	breq	.+24     	; 0xdf8 <__fp_splitA+0x20>
 de0:	9f 3f       	cpi	r25, 0xFF	; 255
 de2:	79 f0       	breq	.+30     	; 0xe02 <__fp_splitA+0x2a>
 de4:	87 95       	ror	r24
 de6:	08 95       	ret
 de8:	12 16       	cp	r1, r18
 dea:	13 06       	cpc	r1, r19
 dec:	14 06       	cpc	r1, r20
 dee:	55 1f       	adc	r21, r21
 df0:	f2 cf       	rjmp	.-28     	; 0xdd6 <__fp_split3+0xe>
 df2:	46 95       	lsr	r20
 df4:	f1 df       	rcall	.-30     	; 0xdd8 <__fp_splitA>
 df6:	08 c0       	rjmp	.+16     	; 0xe08 <__fp_splitA+0x30>
 df8:	16 16       	cp	r1, r22
 dfa:	17 06       	cpc	r1, r23
 dfc:	18 06       	cpc	r1, r24
 dfe:	99 1f       	adc	r25, r25
 e00:	f1 cf       	rjmp	.-30     	; 0xde4 <__fp_splitA+0xc>
 e02:	86 95       	lsr	r24
 e04:	71 05       	cpc	r23, r1
 e06:	61 05       	cpc	r22, r1
 e08:	08 94       	sec
 e0a:	08 95       	ret

00000e0c <__fp_zero>:
 e0c:	e8 94       	clt

00000e0e <__fp_szero>:
 e0e:	bb 27       	eor	r27, r27
 e10:	66 27       	eor	r22, r22
 e12:	77 27       	eor	r23, r23
 e14:	cb 01       	movw	r24, r22
 e16:	97 f9       	bld	r25, 7
 e18:	08 95       	ret

00000e1a <__mulsf3>:
 e1a:	0e 94 20 07 	call	0xe40	; 0xe40 <__mulsf3x>
 e1e:	0c 94 d3 06 	jmp	0xda6	; 0xda6 <__fp_round>
 e22:	0e 94 c5 06 	call	0xd8a	; 0xd8a <__fp_pscA>
 e26:	38 f0       	brcs	.+14     	; 0xe36 <__mulsf3+0x1c>
 e28:	0e 94 cc 06 	call	0xd98	; 0xd98 <__fp_pscB>
 e2c:	20 f0       	brcs	.+8      	; 0xe36 <__mulsf3+0x1c>
 e2e:	95 23       	and	r25, r21
 e30:	11 f0       	breq	.+4      	; 0xe36 <__mulsf3+0x1c>
 e32:	0c 94 bc 06 	jmp	0xd78	; 0xd78 <__fp_inf>
 e36:	0c 94 c2 06 	jmp	0xd84	; 0xd84 <__fp_nan>
 e3a:	11 24       	eor	r1, r1
 e3c:	0c 94 07 07 	jmp	0xe0e	; 0xe0e <__fp_szero>

00000e40 <__mulsf3x>:
 e40:	0e 94 e4 06 	call	0xdc8	; 0xdc8 <__fp_split3>
 e44:	70 f3       	brcs	.-36     	; 0xe22 <__mulsf3+0x8>

00000e46 <__mulsf3_pse>:
 e46:	95 9f       	mul	r25, r21
 e48:	c1 f3       	breq	.-16     	; 0xe3a <__mulsf3+0x20>
 e4a:	95 0f       	add	r25, r21
 e4c:	50 e0       	ldi	r21, 0x00	; 0
 e4e:	55 1f       	adc	r21, r21
 e50:	62 9f       	mul	r22, r18
 e52:	f0 01       	movw	r30, r0
 e54:	72 9f       	mul	r23, r18
 e56:	bb 27       	eor	r27, r27
 e58:	f0 0d       	add	r31, r0
 e5a:	b1 1d       	adc	r27, r1
 e5c:	63 9f       	mul	r22, r19
 e5e:	aa 27       	eor	r26, r26
 e60:	f0 0d       	add	r31, r0
 e62:	b1 1d       	adc	r27, r1
 e64:	aa 1f       	adc	r26, r26
 e66:	64 9f       	mul	r22, r20
 e68:	66 27       	eor	r22, r22
 e6a:	b0 0d       	add	r27, r0
 e6c:	a1 1d       	adc	r26, r1
 e6e:	66 1f       	adc	r22, r22
 e70:	82 9f       	mul	r24, r18
 e72:	22 27       	eor	r18, r18
 e74:	b0 0d       	add	r27, r0
 e76:	a1 1d       	adc	r26, r1
 e78:	62 1f       	adc	r22, r18
 e7a:	73 9f       	mul	r23, r19
 e7c:	b0 0d       	add	r27, r0
 e7e:	a1 1d       	adc	r26, r1
 e80:	62 1f       	adc	r22, r18
 e82:	83 9f       	mul	r24, r19
 e84:	a0 0d       	add	r26, r0
 e86:	61 1d       	adc	r22, r1
 e88:	22 1f       	adc	r18, r18
 e8a:	74 9f       	mul	r23, r20
 e8c:	33 27       	eor	r19, r19
 e8e:	a0 0d       	add	r26, r0
 e90:	61 1d       	adc	r22, r1
 e92:	23 1f       	adc	r18, r19
 e94:	84 9f       	mul	r24, r20
 e96:	60 0d       	add	r22, r0
 e98:	21 1d       	adc	r18, r1
 e9a:	82 2f       	mov	r24, r18
 e9c:	76 2f       	mov	r23, r22
 e9e:	6a 2f       	mov	r22, r26
 ea0:	11 24       	eor	r1, r1
 ea2:	9f 57       	subi	r25, 0x7F	; 127
 ea4:	50 40       	sbci	r21, 0x00	; 0
 ea6:	9a f0       	brmi	.+38     	; 0xece <__mulsf3_pse+0x88>
 ea8:	f1 f0       	breq	.+60     	; 0xee6 <__mulsf3_pse+0xa0>
 eaa:	88 23       	and	r24, r24
 eac:	4a f0       	brmi	.+18     	; 0xec0 <__mulsf3_pse+0x7a>
 eae:	ee 0f       	add	r30, r30
 eb0:	ff 1f       	adc	r31, r31
 eb2:	bb 1f       	adc	r27, r27
 eb4:	66 1f       	adc	r22, r22
 eb6:	77 1f       	adc	r23, r23
 eb8:	88 1f       	adc	r24, r24
 eba:	91 50       	subi	r25, 0x01	; 1
 ebc:	50 40       	sbci	r21, 0x00	; 0
 ebe:	a9 f7       	brne	.-22     	; 0xeaa <__mulsf3_pse+0x64>
 ec0:	9e 3f       	cpi	r25, 0xFE	; 254
 ec2:	51 05       	cpc	r21, r1
 ec4:	80 f0       	brcs	.+32     	; 0xee6 <__mulsf3_pse+0xa0>
 ec6:	0c 94 bc 06 	jmp	0xd78	; 0xd78 <__fp_inf>
 eca:	0c 94 07 07 	jmp	0xe0e	; 0xe0e <__fp_szero>
 ece:	5f 3f       	cpi	r21, 0xFF	; 255
 ed0:	e4 f3       	brlt	.-8      	; 0xeca <__mulsf3_pse+0x84>
 ed2:	98 3e       	cpi	r25, 0xE8	; 232
 ed4:	d4 f3       	brlt	.-12     	; 0xeca <__mulsf3_pse+0x84>
 ed6:	86 95       	lsr	r24
 ed8:	77 95       	ror	r23
 eda:	67 95       	ror	r22
 edc:	b7 95       	ror	r27
 ede:	f7 95       	ror	r31
 ee0:	e7 95       	ror	r30
 ee2:	9f 5f       	subi	r25, 0xFF	; 255
 ee4:	c1 f7       	brne	.-16     	; 0xed6 <__mulsf3_pse+0x90>
 ee6:	fe 2b       	or	r31, r30
 ee8:	88 0f       	add	r24, r24
 eea:	91 1d       	adc	r25, r1
 eec:	96 95       	lsr	r25
 eee:	87 95       	ror	r24
 ef0:	97 f9       	bld	r25, 7
 ef2:	08 95       	ret

00000ef4 <__udivmodsi4>:
 ef4:	a1 e2       	ldi	r26, 0x21	; 33
 ef6:	1a 2e       	mov	r1, r26
 ef8:	aa 1b       	sub	r26, r26
 efa:	bb 1b       	sub	r27, r27
 efc:	fd 01       	movw	r30, r26
 efe:	0d c0       	rjmp	.+26     	; 0xf1a <__udivmodsi4_ep>

00000f00 <__udivmodsi4_loop>:
 f00:	aa 1f       	adc	r26, r26
 f02:	bb 1f       	adc	r27, r27
 f04:	ee 1f       	adc	r30, r30
 f06:	ff 1f       	adc	r31, r31
 f08:	a2 17       	cp	r26, r18
 f0a:	b3 07       	cpc	r27, r19
 f0c:	e4 07       	cpc	r30, r20
 f0e:	f5 07       	cpc	r31, r21
 f10:	20 f0       	brcs	.+8      	; 0xf1a <__udivmodsi4_ep>
 f12:	a2 1b       	sub	r26, r18
 f14:	b3 0b       	sbc	r27, r19
 f16:	e4 0b       	sbc	r30, r20
 f18:	f5 0b       	sbc	r31, r21

00000f1a <__udivmodsi4_ep>:
 f1a:	66 1f       	adc	r22, r22
 f1c:	77 1f       	adc	r23, r23
 f1e:	88 1f       	adc	r24, r24
 f20:	99 1f       	adc	r25, r25
 f22:	1a 94       	dec	r1
 f24:	69 f7       	brne	.-38     	; 0xf00 <__udivmodsi4_loop>
 f26:	60 95       	com	r22
 f28:	70 95       	com	r23
 f2a:	80 95       	com	r24
 f2c:	90 95       	com	r25
 f2e:	9b 01       	movw	r18, r22
 f30:	ac 01       	movw	r20, r24
 f32:	bd 01       	movw	r22, r26
 f34:	cf 01       	movw	r24, r30
 f36:	08 95       	ret

00000f38 <__muluhisi3>:
 f38:	0e 94 b0 07 	call	0xf60	; 0xf60 <__umulhisi3>
 f3c:	a5 9f       	mul	r26, r21
 f3e:	90 0d       	add	r25, r0
 f40:	b4 9f       	mul	r27, r20
 f42:	90 0d       	add	r25, r0
 f44:	a4 9f       	mul	r26, r20
 f46:	80 0d       	add	r24, r0
 f48:	91 1d       	adc	r25, r1
 f4a:	11 24       	eor	r1, r1
 f4c:	08 95       	ret

00000f4e <__tablejump2__>:
 f4e:	ee 0f       	add	r30, r30
 f50:	ff 1f       	adc	r31, r31
 f52:	00 24       	eor	r0, r0
 f54:	00 1c       	adc	r0, r0
 f56:	0b be       	out	0x3b, r0	; 59
 f58:	07 90       	elpm	r0, Z+
 f5a:	f6 91       	elpm	r31, Z
 f5c:	e0 2d       	mov	r30, r0
 f5e:	09 94       	ijmp

00000f60 <__umulhisi3>:
 f60:	a2 9f       	mul	r26, r18
 f62:	b0 01       	movw	r22, r0
 f64:	b3 9f       	mul	r27, r19
 f66:	c0 01       	movw	r24, r0
 f68:	a3 9f       	mul	r26, r19
 f6a:	70 0d       	add	r23, r0
 f6c:	81 1d       	adc	r24, r1
 f6e:	11 24       	eor	r1, r1
 f70:	91 1d       	adc	r25, r1
 f72:	b2 9f       	mul	r27, r18
 f74:	70 0d       	add	r23, r0
 f76:	81 1d       	adc	r24, r1
 f78:	11 24       	eor	r1, r1
 f7a:	91 1d       	adc	r25, r1
 f7c:	08 95       	ret

00000f7e <_exit>:
 f7e:	f8 94       	cli

00000f80 <__stop_program>:
 f80:	ff cf       	rjmp	.-2      	; 0xf80 <__stop_program>
